Archive member included because of file (symbol)

c:/altera/13.0sp1/nios2eds/bin/gnu/h-i686-mingw32/bin/../lib/gcc/nios2-elf/4.1.2\libgcc.a(_sf_to_si.o)
                              obj/default/drivers/drivers.o (__fixsfsi)
c:/altera/13.0sp1/nios2eds/bin/gnu/h-i686-mingw32/bin/../lib/gcc/nios2-elf/4.1.2\libgcc.a(lib2-divmod.o)
                              obj/default/drivers/drivers.o (__divsi3)
c:/altera/13.0sp1/nios2eds/bin/gnu/h-i686-mingw32/bin/../lib/gcc/nios2-elf/4.1.2\libgcc.a(_unpack_sf.o)
                              c:/altera/13.0sp1/nios2eds/bin/gnu/h-i686-mingw32/bin/../lib/gcc/nios2-elf/4.1.2\libgcc.a(_sf_to_si.o) (__unpack_f)
c:/altera/13.0sp1/nios2eds/bin/gnu/h-i686-mingw32/bin/../lib/gcc/nios2-elf/4.1.2/../../../../nios2-elf/lib\libc.a(lib_a-malloc.o)
                              obj/default/graphic_lib/draw_gimps.o (free)
c:/altera/13.0sp1/nios2eds/bin/gnu/h-i686-mingw32/bin/../lib/gcc/nios2-elf/4.1.2/../../../../nios2-elf/lib\libc.a(lib_a-mallocr.o)
                              c:/altera/13.0sp1/nios2eds/bin/gnu/h-i686-mingw32/bin/../lib/gcc/nios2-elf/4.1.2/../../../../nios2-elf/lib\libc.a(lib_a-malloc.o) (_malloc_r)
c:/altera/13.0sp1/nios2eds/bin/gnu/h-i686-mingw32/bin/../lib/gcc/nios2-elf/4.1.2/../../../../nios2-elf/lib\libc.a(lib_a-memcpy.o)
                              obj/default/graphic_lib/draw_gimps.o (memcpy)
c:/altera/13.0sp1/nios2eds/bin/gnu/h-i686-mingw32/bin/../lib/gcc/nios2-elf/4.1.2/../../../../nios2-elf/lib\libc.a(lib_a-memset.o)
                              obj/default/vip_fr.o (memset)
c:/altera/13.0sp1/nios2eds/bin/gnu/h-i686-mingw32/bin/../lib/gcc/nios2-elf/4.1.2/../../../../nios2-elf/lib\libc.a(lib_a-printf.o)
                              obj/default/graphic_lib/draw_gimps.o (printf)
c:/altera/13.0sp1/nios2eds/bin/gnu/h-i686-mingw32/bin/../lib/gcc/nios2-elf/4.1.2/../../../../nios2-elf/lib\libc.a(lib_a-sbrkr.o)
                              c:/altera/13.0sp1/nios2eds/bin/gnu/h-i686-mingw32/bin/../lib/gcc/nios2-elf/4.1.2/../../../../nios2-elf/lib\libc.a(lib_a-mallocr.o) (_sbrk_r)
c:/altera/13.0sp1/nios2eds/bin/gnu/h-i686-mingw32/bin/../lib/gcc/nios2-elf/4.1.2/../../../../nios2-elf/lib\libc.a(lib_a-strcpy.o)
                              obj/default/graphic_lib/simple_graphics.o (strcpy)
c:/altera/13.0sp1/nios2eds/bin/gnu/h-i686-mingw32/bin/../lib/gcc/nios2-elf/4.1.2/../../../../nios2-elf/lib\libc.a(lib_a-strlen.o)
                              obj/default/graphic_lib/simple_graphics.o (strlen)
c:/altera/13.0sp1/nios2eds/bin/gnu/h-i686-mingw32/bin/../lib/gcc/nios2-elf/4.1.2/../../../../nios2-elf/lib\libc.a(lib_a-vfprintf.o)
                              c:/altera/13.0sp1/nios2eds/bin/gnu/h-i686-mingw32/bin/../lib/gcc/nios2-elf/4.1.2/../../../../nios2-elf/lib\libc.a(lib_a-printf.o) (___vfprintf_internal_r)
c:/altera/13.0sp1/nios2eds/bin/gnu/h-i686-mingw32/bin/../lib/gcc/nios2-elf/4.1.2/../../../../nios2-elf/lib\libc.a(lib_a-wsetup.o)
                              c:/altera/13.0sp1/nios2eds/bin/gnu/h-i686-mingw32/bin/../lib/gcc/nios2-elf/4.1.2/../../../../nios2-elf/lib\libc.a(lib_a-vfprintf.o) (__swsetup_r)
c:/altera/13.0sp1/nios2eds/bin/gnu/h-i686-mingw32/bin/../lib/gcc/nios2-elf/4.1.2/../../../../nios2-elf/lib\libc.a(lib_a-dtoa.o)
                              c:/altera/13.0sp1/nios2eds/bin/gnu/h-i686-mingw32/bin/../lib/gcc/nios2-elf/4.1.2/../../../../nios2-elf/lib\libc.a(lib_a-vfprintf.o) (_dtoa_r)
c:/altera/13.0sp1/nios2eds/bin/gnu/h-i686-mingw32/bin/../lib/gcc/nios2-elf/4.1.2/../../../../nios2-elf/lib\libc.a(lib_a-fflush.o)
                              c:/altera/13.0sp1/nios2eds/bin/gnu/h-i686-mingw32/bin/../lib/gcc/nios2-elf/4.1.2/../../../../nios2-elf/lib\libc.a(lib_a-vfprintf.o) (_fflush_r)
c:/altera/13.0sp1/nios2eds/bin/gnu/h-i686-mingw32/bin/../lib/gcc/nios2-elf/4.1.2/../../../../nios2-elf/lib\libc.a(lib_a-findfp.o)
                              c:/altera/13.0sp1/nios2eds/bin/gnu/h-i686-mingw32/bin/../lib/gcc/nios2-elf/4.1.2/../../../../nios2-elf/lib\libc.a(lib_a-vfprintf.o) (__sinit)
c:/altera/13.0sp1/nios2eds/bin/gnu/h-i686-mingw32/bin/../lib/gcc/nios2-elf/4.1.2/../../../../nios2-elf/lib\libc.a(lib_a-freer.o)
                              c:/altera/13.0sp1/nios2eds/bin/gnu/h-i686-mingw32/bin/../lib/gcc/nios2-elf/4.1.2/../../../../nios2-elf/lib\libc.a(lib_a-malloc.o) (_free_r)
c:/altera/13.0sp1/nios2eds/bin/gnu/h-i686-mingw32/bin/../lib/gcc/nios2-elf/4.1.2/../../../../nios2-elf/lib\libc.a(lib_a-fvwrite.o)
                              c:/altera/13.0sp1/nios2eds/bin/gnu/h-i686-mingw32/bin/../lib/gcc/nios2-elf/4.1.2/../../../../nios2-elf/lib\libc.a(lib_a-vfprintf.o) (__sfvwrite_r)
c:/altera/13.0sp1/nios2eds/bin/gnu/h-i686-mingw32/bin/../lib/gcc/nios2-elf/4.1.2/../../../../nios2-elf/lib\libc.a(lib_a-fwalk.o)
                              c:/altera/13.0sp1/nios2eds/bin/gnu/h-i686-mingw32/bin/../lib/gcc/nios2-elf/4.1.2/../../../../nios2-elf/lib\libc.a(lib_a-fflush.o) (_fwalk_reent)
c:/altera/13.0sp1/nios2eds/bin/gnu/h-i686-mingw32/bin/../lib/gcc/nios2-elf/4.1.2/../../../../nios2-elf/lib\libc.a(lib_a-impure.o)
                              c:/altera/13.0sp1/nios2eds/bin/gnu/h-i686-mingw32/bin/../lib/gcc/nios2-elf/4.1.2/../../../../nios2-elf/lib\libc.a(lib_a-malloc.o) (_impure_ptr)
c:/altera/13.0sp1/nios2eds/bin/gnu/h-i686-mingw32/bin/../lib/gcc/nios2-elf/4.1.2/../../../../nios2-elf/lib\libc.a(lib_a-int_errno.o)
                              c:/altera/13.0sp1/nios2eds/bin/gnu/h-i686-mingw32/bin/../lib/gcc/nios2-elf/4.1.2/../../../../nios2-elf/lib\libc.a(lib_a-sbrkr.o) (errno)
c:/altera/13.0sp1/nios2eds/bin/gnu/h-i686-mingw32/bin/../lib/gcc/nios2-elf/4.1.2/../../../../nios2-elf/lib\libc.a(lib_a-locale.o)
                              c:/altera/13.0sp1/nios2eds/bin/gnu/h-i686-mingw32/bin/../lib/gcc/nios2-elf/4.1.2/../../../../nios2-elf/lib\libc.a(lib_a-vfprintf.o) (_localeconv_r)
c:/altera/13.0sp1/nios2eds/bin/gnu/h-i686-mingw32/bin/../lib/gcc/nios2-elf/4.1.2/../../../../nios2-elf/lib\libc.a(lib_a-makebuf.o)
                              c:/altera/13.0sp1/nios2eds/bin/gnu/h-i686-mingw32/bin/../lib/gcc/nios2-elf/4.1.2/../../../../nios2-elf/lib\libc.a(lib_a-wsetup.o) (__smakebuf_r)
c:/altera/13.0sp1/nios2eds/bin/gnu/h-i686-mingw32/bin/../lib/gcc/nios2-elf/4.1.2/../../../../nios2-elf/lib\libc.a(lib_a-memchr.o)
                              c:/altera/13.0sp1/nios2eds/bin/gnu/h-i686-mingw32/bin/../lib/gcc/nios2-elf/4.1.2/../../../../nios2-elf/lib\libc.a(lib_a-vfprintf.o) (memchr)
c:/altera/13.0sp1/nios2eds/bin/gnu/h-i686-mingw32/bin/../lib/gcc/nios2-elf/4.1.2/../../../../nios2-elf/lib\libc.a(lib_a-memmove.o)
                              c:/altera/13.0sp1/nios2eds/bin/gnu/h-i686-mingw32/bin/../lib/gcc/nios2-elf/4.1.2/../../../../nios2-elf/lib\libc.a(lib_a-fvwrite.o) (memmove)
c:/altera/13.0sp1/nios2eds/bin/gnu/h-i686-mingw32/bin/../lib/gcc/nios2-elf/4.1.2/../../../../nios2-elf/lib\libc.a(lib_a-mprec.o)
                              c:/altera/13.0sp1/nios2eds/bin/gnu/h-i686-mingw32/bin/../lib/gcc/nios2-elf/4.1.2/../../../../nios2-elf/lib\libc.a(lib_a-dtoa.o) (_Bfree)
c:/altera/13.0sp1/nios2eds/bin/gnu/h-i686-mingw32/bin/../lib/gcc/nios2-elf/4.1.2/../../../../nios2-elf/lib\libc.a(lib_a-reallocr.o)
                              c:/altera/13.0sp1/nios2eds/bin/gnu/h-i686-mingw32/bin/../lib/gcc/nios2-elf/4.1.2/../../../../nios2-elf/lib\libc.a(lib_a-fvwrite.o) (_realloc_r)
c:/altera/13.0sp1/nios2eds/bin/gnu/h-i686-mingw32/bin/../lib/gcc/nios2-elf/4.1.2/../../../../nios2-elf/lib\libc.a(lib_a-s_isinfd.o)
                              c:/altera/13.0sp1/nios2eds/bin/gnu/h-i686-mingw32/bin/../lib/gcc/nios2-elf/4.1.2/../../../../nios2-elf/lib\libc.a(lib_a-vfprintf.o) (__isinfd)
c:/altera/13.0sp1/nios2eds/bin/gnu/h-i686-mingw32/bin/../lib/gcc/nios2-elf/4.1.2/../../../../nios2-elf/lib\libc.a(lib_a-s_isnand.o)
                              c:/altera/13.0sp1/nios2eds/bin/gnu/h-i686-mingw32/bin/../lib/gcc/nios2-elf/4.1.2/../../../../nios2-elf/lib\libc.a(lib_a-vfprintf.o) (__isnand)
c:/altera/13.0sp1/nios2eds/bin/gnu/h-i686-mingw32/bin/../lib/gcc/nios2-elf/4.1.2/../../../../nios2-elf/lib\libc.a(lib_a-stdio.o)
                              c:/altera/13.0sp1/nios2eds/bin/gnu/h-i686-mingw32/bin/../lib/gcc/nios2-elf/4.1.2/../../../../nios2-elf/lib\libc.a(lib_a-findfp.o) (__sclose)
c:/altera/13.0sp1/nios2eds/bin/gnu/h-i686-mingw32/bin/../lib/gcc/nios2-elf/4.1.2/../../../../nios2-elf/lib\libc.a(lib_a-strcmp.o)
                              c:/altera/13.0sp1/nios2eds/bin/gnu/h-i686-mingw32/bin/../lib/gcc/nios2-elf/4.1.2/../../../../nios2-elf/lib\libc.a(lib_a-locale.o) (strcmp)
c:/altera/13.0sp1/nios2eds/bin/gnu/h-i686-mingw32/bin/../lib/gcc/nios2-elf/4.1.2/../../../../nios2-elf/lib\libc.a(lib_a-writer.o)
                              c:/altera/13.0sp1/nios2eds/bin/gnu/h-i686-mingw32/bin/../lib/gcc/nios2-elf/4.1.2/../../../../nios2-elf/lib\libc.a(lib_a-stdio.o) (_write_r)
c:/altera/13.0sp1/nios2eds/bin/gnu/h-i686-mingw32/bin/../lib/gcc/nios2-elf/4.1.2/../../../../nios2-elf/lib\libc.a(lib_a-callocr.o)
                              c:/altera/13.0sp1/nios2eds/bin/gnu/h-i686-mingw32/bin/../lib/gcc/nios2-elf/4.1.2/../../../../nios2-elf/lib\libc.a(lib_a-mprec.o) (_calloc_r)
c:/altera/13.0sp1/nios2eds/bin/gnu/h-i686-mingw32/bin/../lib/gcc/nios2-elf/4.1.2/../../../../nios2-elf/lib\libc.a(lib_a-closer.o)
                              c:/altera/13.0sp1/nios2eds/bin/gnu/h-i686-mingw32/bin/../lib/gcc/nios2-elf/4.1.2/../../../../nios2-elf/lib\libc.a(lib_a-stdio.o) (_close_r)
c:/altera/13.0sp1/nios2eds/bin/gnu/h-i686-mingw32/bin/../lib/gcc/nios2-elf/4.1.2/../../../../nios2-elf/lib\libc.a(lib_a-fclose.o)
                              c:/altera/13.0sp1/nios2eds/bin/gnu/h-i686-mingw32/bin/../lib/gcc/nios2-elf/4.1.2/../../../../nios2-elf/lib\libc.a(lib_a-findfp.o) (fclose)
c:/altera/13.0sp1/nios2eds/bin/gnu/h-i686-mingw32/bin/../lib/gcc/nios2-elf/4.1.2/../../../../nios2-elf/lib\libc.a(lib_a-fstatr.o)
                              c:/altera/13.0sp1/nios2eds/bin/gnu/h-i686-mingw32/bin/../lib/gcc/nios2-elf/4.1.2/../../../../nios2-elf/lib\libc.a(lib_a-makebuf.o) (_fstat_r)
c:/altera/13.0sp1/nios2eds/bin/gnu/h-i686-mingw32/bin/../lib/gcc/nios2-elf/4.1.2/../../../../nios2-elf/lib\libc.a(lib_a-isattyr.o)
                              c:/altera/13.0sp1/nios2eds/bin/gnu/h-i686-mingw32/bin/../lib/gcc/nios2-elf/4.1.2/../../../../nios2-elf/lib\libc.a(lib_a-makebuf.o) (_isatty_r)
c:/altera/13.0sp1/nios2eds/bin/gnu/h-i686-mingw32/bin/../lib/gcc/nios2-elf/4.1.2/../../../../nios2-elf/lib\libc.a(lib_a-lseekr.o)
                              c:/altera/13.0sp1/nios2eds/bin/gnu/h-i686-mingw32/bin/../lib/gcc/nios2-elf/4.1.2/../../../../nios2-elf/lib\libc.a(lib_a-stdio.o) (_lseek_r)
c:/altera/13.0sp1/nios2eds/bin/gnu/h-i686-mingw32/bin/../lib/gcc/nios2-elf/4.1.2/../../../../nios2-elf/lib\libc.a(lib_a-readr.o)
                              c:/altera/13.0sp1/nios2eds/bin/gnu/h-i686-mingw32/bin/../lib/gcc/nios2-elf/4.1.2/../../../../nios2-elf/lib\libc.a(lib_a-stdio.o) (_read_r)
c:/altera/13.0sp1/nios2eds/bin/gnu/h-i686-mingw32/bin/../lib/gcc/nios2-elf/4.1.2\libgcc.a(_udivdi3.o)
                              c:/altera/13.0sp1/nios2eds/bin/gnu/h-i686-mingw32/bin/../lib/gcc/nios2-elf/4.1.2/../../../../nios2-elf/lib\libc.a(lib_a-vfprintf.o) (__udivdi3)
c:/altera/13.0sp1/nios2eds/bin/gnu/h-i686-mingw32/bin/../lib/gcc/nios2-elf/4.1.2\libgcc.a(_umoddi3.o)
                              c:/altera/13.0sp1/nios2eds/bin/gnu/h-i686-mingw32/bin/../lib/gcc/nios2-elf/4.1.2/../../../../nios2-elf/lib\libc.a(lib_a-vfprintf.o) (__umoddi3)
c:/altera/13.0sp1/nios2eds/bin/gnu/h-i686-mingw32/bin/../lib/gcc/nios2-elf/4.1.2\libgcc.a(_addsub_df.o)
                              c:/altera/13.0sp1/nios2eds/bin/gnu/h-i686-mingw32/bin/../lib/gcc/nios2-elf/4.1.2/../../../../nios2-elf/lib\libc.a(lib_a-dtoa.o) (__subdf3)
c:/altera/13.0sp1/nios2eds/bin/gnu/h-i686-mingw32/bin/../lib/gcc/nios2-elf/4.1.2\libgcc.a(_mul_df.o)
                              c:/altera/13.0sp1/nios2eds/bin/gnu/h-i686-mingw32/bin/../lib/gcc/nios2-elf/4.1.2/../../../../nios2-elf/lib\libc.a(lib_a-dtoa.o) (__muldf3)
c:/altera/13.0sp1/nios2eds/bin/gnu/h-i686-mingw32/bin/../lib/gcc/nios2-elf/4.1.2\libgcc.a(_div_df.o)
                              c:/altera/13.0sp1/nios2eds/bin/gnu/h-i686-mingw32/bin/../lib/gcc/nios2-elf/4.1.2/../../../../nios2-elf/lib\libc.a(lib_a-dtoa.o) (__divdf3)
c:/altera/13.0sp1/nios2eds/bin/gnu/h-i686-mingw32/bin/../lib/gcc/nios2-elf/4.1.2\libgcc.a(_eq_df.o)
                              c:/altera/13.0sp1/nios2eds/bin/gnu/h-i686-mingw32/bin/../lib/gcc/nios2-elf/4.1.2/../../../../nios2-elf/lib\libc.a(lib_a-vfprintf.o) (__eqdf2)
c:/altera/13.0sp1/nios2eds/bin/gnu/h-i686-mingw32/bin/../lib/gcc/nios2-elf/4.1.2\libgcc.a(_ne_df.o)
                              c:/altera/13.0sp1/nios2eds/bin/gnu/h-i686-mingw32/bin/../lib/gcc/nios2-elf/4.1.2/../../../../nios2-elf/lib\libc.a(lib_a-vfprintf.o) (__nedf2)
c:/altera/13.0sp1/nios2eds/bin/gnu/h-i686-mingw32/bin/../lib/gcc/nios2-elf/4.1.2\libgcc.a(_gt_df.o)
                              c:/altera/13.0sp1/nios2eds/bin/gnu/h-i686-mingw32/bin/../lib/gcc/nios2-elf/4.1.2/../../../../nios2-elf/lib\libc.a(lib_a-dtoa.o) (__gtdf2)
c:/altera/13.0sp1/nios2eds/bin/gnu/h-i686-mingw32/bin/../lib/gcc/nios2-elf/4.1.2\libgcc.a(_ge_df.o)
                              c:/altera/13.0sp1/nios2eds/bin/gnu/h-i686-mingw32/bin/../lib/gcc/nios2-elf/4.1.2/../../../../nios2-elf/lib\libc.a(lib_a-dtoa.o) (__gedf2)
c:/altera/13.0sp1/nios2eds/bin/gnu/h-i686-mingw32/bin/../lib/gcc/nios2-elf/4.1.2\libgcc.a(_lt_df.o)
                              c:/altera/13.0sp1/nios2eds/bin/gnu/h-i686-mingw32/bin/../lib/gcc/nios2-elf/4.1.2/../../../../nios2-elf/lib\libc.a(lib_a-vfprintf.o) (__ltdf2)
c:/altera/13.0sp1/nios2eds/bin/gnu/h-i686-mingw32/bin/../lib/gcc/nios2-elf/4.1.2\libgcc.a(_si_to_df.o)
                              c:/altera/13.0sp1/nios2eds/bin/gnu/h-i686-mingw32/bin/../lib/gcc/nios2-elf/4.1.2/../../../../nios2-elf/lib\libc.a(lib_a-dtoa.o) (__floatsidf)
c:/altera/13.0sp1/nios2eds/bin/gnu/h-i686-mingw32/bin/../lib/gcc/nios2-elf/4.1.2\libgcc.a(_df_to_si.o)
                              c:/altera/13.0sp1/nios2eds/bin/gnu/h-i686-mingw32/bin/../lib/gcc/nios2-elf/4.1.2/../../../../nios2-elf/lib\libc.a(lib_a-dtoa.o) (__fixdfsi)
c:/altera/13.0sp1/nios2eds/bin/gnu/h-i686-mingw32/bin/../lib/gcc/nios2-elf/4.1.2\libgcc.a(_thenan_df.o)
                              c:/altera/13.0sp1/nios2eds/bin/gnu/h-i686-mingw32/bin/../lib/gcc/nios2-elf/4.1.2\libgcc.a(_addsub_df.o) (__thenan_df)
c:/altera/13.0sp1/nios2eds/bin/gnu/h-i686-mingw32/bin/../lib/gcc/nios2-elf/4.1.2\libgcc.a(_usi_to_df.o)
                              c:/altera/13.0sp1/nios2eds/bin/gnu/h-i686-mingw32/bin/../lib/gcc/nios2-elf/4.1.2/../../../../nios2-elf/lib\libc.a(lib_a-dtoa.o) (__floatunsidf)
c:/altera/13.0sp1/nios2eds/bin/gnu/h-i686-mingw32/bin/../lib/gcc/nios2-elf/4.1.2\libgcc.a(_muldi3.o)
                              c:/altera/13.0sp1/nios2eds/bin/gnu/h-i686-mingw32/bin/../lib/gcc/nios2-elf/4.1.2\libgcc.a(_mul_df.o) (__muldi3)
c:/altera/13.0sp1/nios2eds/bin/gnu/h-i686-mingw32/bin/../lib/gcc/nios2-elf/4.1.2\libgcc.a(_clz.o)
                              c:/altera/13.0sp1/nios2eds/bin/gnu/h-i686-mingw32/bin/../lib/gcc/nios2-elf/4.1.2\libgcc.a(_udivdi3.o) (__clz_tab)
c:/altera/13.0sp1/nios2eds/bin/gnu/h-i686-mingw32/bin/../lib/gcc/nios2-elf/4.1.2\libgcc.a(_clzsi2.o)
                              c:/altera/13.0sp1/nios2eds/bin/gnu/h-i686-mingw32/bin/../lib/gcc/nios2-elf/4.1.2\libgcc.a(_si_to_df.o) (__clzsi2)
c:/altera/13.0sp1/nios2eds/bin/gnu/h-i686-mingw32/bin/../lib/gcc/nios2-elf/4.1.2\libgcc.a(_pack_df.o)
                              c:/altera/13.0sp1/nios2eds/bin/gnu/h-i686-mingw32/bin/../lib/gcc/nios2-elf/4.1.2\libgcc.a(_addsub_df.o) (__pack_d)
c:/altera/13.0sp1/nios2eds/bin/gnu/h-i686-mingw32/bin/../lib/gcc/nios2-elf/4.1.2\libgcc.a(_unpack_df.o)
                              c:/altera/13.0sp1/nios2eds/bin/gnu/h-i686-mingw32/bin/../lib/gcc/nios2-elf/4.1.2\libgcc.a(_addsub_df.o) (__unpack_d)
c:/altera/13.0sp1/nios2eds/bin/gnu/h-i686-mingw32/bin/../lib/gcc/nios2-elf/4.1.2\libgcc.a(_fpcmp_parts_df.o)
                              c:/altera/13.0sp1/nios2eds/bin/gnu/h-i686-mingw32/bin/../lib/gcc/nios2-elf/4.1.2\libgcc.a(_eq_df.o) (__fpcmp_parts_d)
../lab5_bsp/\libucosii_bsp.a(alt_close.o)
                              c:/altera/13.0sp1/nios2eds/bin/gnu/h-i686-mingw32/bin/../lib/gcc/nios2-elf/4.1.2/../../../../nios2-elf/lib\libc.a(lib_a-closer.o) (close)
../lab5_bsp/\libucosii_bsp.a(alt_dcache_flush_all.o)
                              obj/default/vip_fr.o (alt_dcache_flush_all)
../lab5_bsp/\libucosii_bsp.a(alt_dev.o)
                              ../lab5_bsp/\libucosii_bsp.a(alt_close.o) (alt_fd_list)
../lab5_bsp/\libucosii_bsp.a(alt_errno.o)
                              ../lab5_bsp/\libucosii_bsp.a(alt_close.o) (alt_errno)
../lab5_bsp/\libucosii_bsp.a(alt_fstat.o)
                              c:/altera/13.0sp1/nios2eds/bin/gnu/h-i686-mingw32/bin/../lib/gcc/nios2-elf/4.1.2/../../../../nios2-elf/lib\libc.a(lib_a-fstatr.o) (fstat)
../lab5_bsp/\libucosii_bsp.a(alt_iic.o)
                              obj/default/student_code/student_code.o (alt_ic_isr_register)
../lab5_bsp/\libucosii_bsp.a(alt_iic_isr_register.o)
                              ../lab5_bsp/\libucosii_bsp.a(alt_iic.o) (alt_iic_isr_register)
../lab5_bsp/\libucosii_bsp.a(alt_irq_entry.o)
                              ../lab5_bsp/\libucosii_bsp.a(alt_iic_isr_register.o) (alt_irq_entry)
../lab5_bsp/\libucosii_bsp.a(alt_irq_handler.o)
                              ../lab5_bsp/\libucosii_bsp.a(alt_iic_isr_register.o) (alt_irq_handler)
../lab5_bsp/\libucosii_bsp.a(alt_irq_vars.o)
                              ../lab5_bsp/\libucosii_bsp.a(alt_iic.o) (alt_irq_active)
../lab5_bsp/\libucosii_bsp.a(alt_isatty.o)
                              c:/altera/13.0sp1/nios2eds/bin/gnu/h-i686-mingw32/bin/../lib/gcc/nios2-elf/4.1.2/../../../../nios2-elf/lib\libc.a(lib_a-isattyr.o) (isatty)
../lab5_bsp/\libucosii_bsp.a(alt_load.o)
                              ../lab5_bsp//obj/HAL/src/crt0.o (alt_load)
../lab5_bsp/\libucosii_bsp.a(alt_lseek.o)
                              c:/altera/13.0sp1/nios2eds/bin/gnu/h-i686-mingw32/bin/../lib/gcc/nios2-elf/4.1.2/../../../../nios2-elf/lib\libc.a(lib_a-lseekr.o) (lseek)
../lab5_bsp/\libucosii_bsp.a(alt_main.o)
                              ../lab5_bsp//obj/HAL/src/crt0.o (alt_main)
../lab5_bsp/\libucosii_bsp.a(alt_read.o)
                              c:/altera/13.0sp1/nios2eds/bin/gnu/h-i686-mingw32/bin/../lib/gcc/nios2-elf/4.1.2/../../../../nios2-elf/lib\libc.a(lib_a-readr.o) (read)
../lab5_bsp/\libucosii_bsp.a(alt_release_fd.o)
                              ../lab5_bsp/\libucosii_bsp.a(alt_close.o) (alt_release_fd)
../lab5_bsp/\libucosii_bsp.a(alt_sbrk.o)
                              c:/altera/13.0sp1/nios2eds/bin/gnu/h-i686-mingw32/bin/../lib/gcc/nios2-elf/4.1.2/../../../../nios2-elf/lib\libc.a(lib_a-sbrkr.o) (sbrk)
../lab5_bsp/\libucosii_bsp.a(alt_tick.o)
                              obj/default/graphic_lib/simple_graphics.o (_alt_nticks)
../lab5_bsp/\libucosii_bsp.a(alt_write.o)
                              c:/altera/13.0sp1/nios2eds/bin/gnu/h-i686-mingw32/bin/../lib/gcc/nios2-elf/4.1.2/../../../../nios2-elf/lib\libc.a(lib_a-writer.o) (write)
../lab5_bsp/\libucosii_bsp.a(alt_env_lock.o)
                              ../lab5_bsp/\libucosii_bsp.a(alt_main.o) (alt_envsem)
../lab5_bsp/\libucosii_bsp.a(alt_malloc_lock.o)
                              c:/altera/13.0sp1/nios2eds/bin/gnu/h-i686-mingw32/bin/../lib/gcc/nios2-elf/4.1.2/../../../../nios2-elf/lib\libc.a(lib_a-mallocr.o) (__malloc_unlock)
../lab5_bsp/\libucosii_bsp.a(os_core.o)
                              obj/default/hello_ucosii.o (OSStart)
../lab5_bsp/\libucosii_bsp.a(os_dbg.o)
                              ../lab5_bsp/\libucosii_bsp.a(os_core.o) (OSDebugInit)
../lab5_bsp/\libucosii_bsp.a(os_flag.o)
                              ../lab5_bsp/\libucosii_bsp.a(os_core.o) (OS_FlagInit)
../lab5_bsp/\libucosii_bsp.a(os_mem.o)
                              ../lab5_bsp/\libucosii_bsp.a(os_core.o) (OS_MemInit)
../lab5_bsp/\libucosii_bsp.a(os_q.o)
                              ../lab5_bsp/\libucosii_bsp.a(os_core.o) (OS_QInit)
../lab5_bsp/\libucosii_bsp.a(os_sem.o)
                              ../lab5_bsp/\libucosii_bsp.a(alt_main.o) (OSSemCreate)
../lab5_bsp/\libucosii_bsp.a(os_task.o)
                              ../lab5_bsp/\libucosii_bsp.a(alt_env_lock.o) (OSTaskQuery)
../lab5_bsp/\libucosii_bsp.a(os_time.o)
                              ../lab5_bsp/\libucosii_bsp.a(os_core.o) (OSTimeDly)
../lab5_bsp/\libucosii_bsp.a(alt_sys_init.o)
                              ../lab5_bsp/\libucosii_bsp.a(alt_main.o) (alt_sys_init)
../lab5_bsp/\libucosii_bsp.a(altera_avalon_jtag_uart_fd.o)
                              ../lab5_bsp/\libucosii_bsp.a(alt_sys_init.o) (altera_avalon_jtag_uart_ioctl_fd)
../lab5_bsp/\libucosii_bsp.a(altera_avalon_jtag_uart_init.o)
                              ../lab5_bsp/\libucosii_bsp.a(altera_avalon_jtag_uart_fd.o) (altera_avalon_jtag_uart_close)
../lab5_bsp/\libucosii_bsp.a(altera_avalon_jtag_uart_ioctl.o)
                              ../lab5_bsp/\libucosii_bsp.a(altera_avalon_jtag_uart_fd.o) (altera_avalon_jtag_uart_ioctl)
../lab5_bsp/\libucosii_bsp.a(altera_avalon_jtag_uart_read.o)
                              ../lab5_bsp/\libucosii_bsp.a(altera_avalon_jtag_uart_fd.o) (altera_avalon_jtag_uart_read)
../lab5_bsp/\libucosii_bsp.a(altera_avalon_jtag_uart_write.o)
                              ../lab5_bsp/\libucosii_bsp.a(altera_avalon_jtag_uart_fd.o) (altera_avalon_jtag_uart_write)
../lab5_bsp/\libucosii_bsp.a(altera_avalon_timer_sc.o)
                              ../lab5_bsp/\libucosii_bsp.a(alt_sys_init.o) (alt_avalon_timer_sc_init)
../lab5_bsp/\libucosii_bsp.a(alt_alarm_start.o)
                              ../lab5_bsp/\libucosii_bsp.a(altera_avalon_jtag_uart_init.o) (alt_alarm_start)
../lab5_bsp/\libucosii_bsp.a(alt_dev_llist_insert.o)
                              ../lab5_bsp/\libucosii_bsp.a(alt_sys_init.o) (alt_dev_llist_insert)
../lab5_bsp/\libucosii_bsp.a(alt_do_ctors.o)
                              ../lab5_bsp/\libucosii_bsp.a(alt_main.o) (_do_ctors)
../lab5_bsp/\libucosii_bsp.a(alt_do_dtors.o)
                              ../lab5_bsp/\libucosii_bsp.a(alt_main.o) (_do_dtors)
../lab5_bsp/\libucosii_bsp.a(alt_exception_entry.o)
                              ../lab5_bsp/\libucosii_bsp.a(alt_irq_entry.o) (alt_exception)
../lab5_bsp/\libucosii_bsp.a(alt_icache_flush_all.o)
                              ../lab5_bsp/\libucosii_bsp.a(alt_load.o) (alt_icache_flush_all)
../lab5_bsp/\libucosii_bsp.a(alt_io_redirect.o)
                              ../lab5_bsp/\libucosii_bsp.a(alt_main.o) (alt_io_redirect)
../lab5_bsp/\libucosii_bsp.a(alt_open.o)
                              ../lab5_bsp/\libucosii_bsp.a(alt_io_redirect.o) (open)
../lab5_bsp/\libucosii_bsp.a(altera_nios2_qsys_irq.o)
                              ../lab5_bsp/\libucosii_bsp.a(alt_sys_init.o) (altera_nios2_qsys_irq_init)
../lab5_bsp/\libucosii_bsp.a(os_cpu_a.o)
                              ../lab5_bsp/\libucosii_bsp.a(os_core.o) (OSIntCtxSw)
../lab5_bsp/\libucosii_bsp.a(os_cpu_c.o)
                              ../lab5_bsp/\libucosii_bsp.a(os_core.o) (OSTaskCreateHook)
../lab5_bsp/\libucosii_bsp.a(alt_find_dev.o)
                              ../lab5_bsp/\libucosii_bsp.a(alt_open.o) (alt_find_dev)
../lab5_bsp/\libucosii_bsp.a(alt_find_file.o)
                              ../lab5_bsp/\libucosii_bsp.a(alt_open.o) (alt_find_file)
../lab5_bsp/\libucosii_bsp.a(alt_get_fd.o)
                              ../lab5_bsp/\libucosii_bsp.a(alt_open.o) (alt_get_fd)
../lab5_bsp/\libucosii_bsp.a(alt_icache_flush.o)
                              ../lab5_bsp/\libucosii_bsp.a(alt_icache_flush_all.o) (alt_icache_flush)
c:/altera/13.0sp1/nios2eds/bin/gnu/h-i686-mingw32/bin/../lib/gcc/nios2-elf/4.1.2/../../../../nios2-elf/lib\libc.a(lib_a-atexit.o)
                              ../lab5_bsp/\libucosii_bsp.a(alt_main.o) (atexit)
c:/altera/13.0sp1/nios2eds/bin/gnu/h-i686-mingw32/bin/../lib/gcc/nios2-elf/4.1.2/../../../../nios2-elf/lib\libc.a(lib_a-exit.o)
                              ../lab5_bsp/\libucosii_bsp.a(alt_main.o) (exit)
c:/altera/13.0sp1/nios2eds/bin/gnu/h-i686-mingw32/bin/../lib/gcc/nios2-elf/4.1.2/../../../../nios2-elf/lib\libc.a(lib_a-memcmp.o)
                              ../lab5_bsp/\libucosii_bsp.a(alt_find_dev.o) (memcmp)
c:/altera/13.0sp1/nios2eds/bin/gnu/h-i686-mingw32/bin/../lib/gcc/nios2-elf/4.1.2/../../../../nios2-elf/lib\libc.a(lib_a-__atexit.o)
                              c:/altera/13.0sp1/nios2eds/bin/gnu/h-i686-mingw32/bin/../lib/gcc/nios2-elf/4.1.2/../../../../nios2-elf/lib\libc.a(lib_a-atexit.o) (__register_exitproc)
c:/altera/13.0sp1/nios2eds/bin/gnu/h-i686-mingw32/bin/../lib/gcc/nios2-elf/4.1.2/../../../../nios2-elf/lib\libc.a(lib_a-__call_atexit.o)
                              c:/altera/13.0sp1/nios2eds/bin/gnu/h-i686-mingw32/bin/../lib/gcc/nios2-elf/4.1.2/../../../../nios2-elf/lib\libc.a(lib_a-exit.o) (__call_exitprocs)
c:/altera/13.0sp1/nios2eds/bin/gnu/h-i686-mingw32/bin/../lib/gcc/nios2-elf/4.1.2\libgcc.a(_fixunsdfsi.o)
                              ../lab5_bsp/\libucosii_bsp.a(os_time.o) (__fixunsdfsi)
../lab5_bsp/\libucosii_bsp.a(alt_exit.o)
                              c:/altera/13.0sp1/nios2eds/bin/gnu/h-i686-mingw32/bin/../lib/gcc/nios2-elf/4.1.2/../../../../nios2-elf/lib\libc.a(lib_a-exit.o) (_exit)

Allocating common symbols
Common symbol       size              file

alt_irq             0x100             ../lab5_bsp/\libucosii_bsp.a(alt_irq_handler.o)
task1_stk           0x2000            obj/default/hello_ucosii.o
OSLockNesting       0x1               ../lab5_bsp/\libucosii_bsp.a(os_core.o)
OSRunning           0x1               ../lab5_bsp/\libucosii_bsp.a(os_core.o)
OSIdleCtr           0x4               ../lab5_bsp/\libucosii_bsp.a(os_core.o)
OSPrioHighRdy       0x1               ../lab5_bsp/\libucosii_bsp.a(os_core.o)
errno               0x4               c:/altera/13.0sp1/nios2eds/bin/gnu/h-i686-mingw32/bin/../lib/gcc/nios2-elf/4.1.2/../../../../nios2-elf/lib\libc.a(lib_a-int_errno.o)
buttons_control2    0xc               obj/default/hello_ucosii.o
alt_heapsem         0x4               ../lab5_bsp/\libucosii_bsp.a(alt_malloc_lock.o)
OSFlagTbl           0x370             ../lab5_bsp/\libucosii_bsp.a(os_core.o)
OSPrioCur           0x1               ../lab5_bsp/\libucosii_bsp.a(os_core.o)
OSTCBList           0x4               ../lab5_bsp/\libucosii_bsp.a(os_core.o)
alt_fd_list_lock    0x4               ../lab5_bsp/\libucosii_bsp.a(alt_dev.o)
OSMemTbl            0xc30             ../lab5_bsp/\libucosii_bsp.a(os_core.o)
OSTickStepState     0x1               ../lab5_bsp/\libucosii_bsp.a(os_core.o)
OSTaskStatStk       0x800             ../lab5_bsp/\libucosii_bsp.a(os_core.o)
task4_stk           0x2000            obj/default/hello_ucosii.o
OSCtxSwCtr          0x4               ../lab5_bsp/\libucosii_bsp.a(os_core.o)
OSIdleCtrMax        0x4               ../lab5_bsp/\libucosii_bsp.a(os_core.o)
OSTCBFreeList       0x4               ../lab5_bsp/\libucosii_bsp.a(os_core.o)
OSCPUUsage          0x1               ../lab5_bsp/\libucosii_bsp.a(os_core.o)
OSTaskCtr           0x1               ../lab5_bsp/\libucosii_bsp.a(os_core.o)
task6_stk           0x2000            obj/default/hello_ucosii.o
OSMemFreeList       0x4               ../lab5_bsp/\libucosii_bsp.a(os_core.o)
OSQTbl              0x1e0             ../lab5_bsp/\libucosii_bsp.a(os_core.o)
OSTCBHighRdy        0x4               ../lab5_bsp/\libucosii_bsp.a(os_core.o)
OSQFreeList         0x4               ../lab5_bsp/\libucosii_bsp.a(os_core.o)
OSRdyGrp            0x1               ../lab5_bsp/\libucosii_bsp.a(os_core.o)
task2_stk           0x2000            obj/default/hello_ucosii.o
_atexit0            0x190             c:/altera/13.0sp1/nios2eds/bin/gnu/h-i686-mingw32/bin/../lib/gcc/nios2-elf/4.1.2/../../../../nios2-elf/lib\libc.a(lib_a-atexit.o)
task3_stk           0x2000            obj/default/hello_ucosii.o
OSRdyTbl            0x3               ../lab5_bsp/\libucosii_bsp.a(os_core.o)
OSEventFreeList     0x4               ../lab5_bsp/\libucosii_bsp.a(os_core.o)
SW_Frame            0x4               obj/default/hello_ucosii.o
buttons_control1    0xc               obj/default/hello_ucosii.o
OSIntNesting        0x1               ../lab5_bsp/\libucosii_bsp.a(os_core.o)
OSTCBCur            0x4               ../lab5_bsp/\libucosii_bsp.a(os_core.o)
OSTime              0x4               ../lab5_bsp/\libucosii_bsp.a(os_core.o)
OSTaskIdleStk       0x800             ../lab5_bsp/\libucosii_bsp.a(os_core.o)
OSEventTbl          0xb40             ../lab5_bsp/\libucosii_bsp.a(os_core.o)
OSTCBTbl            0x510             ../lab5_bsp/\libucosii_bsp.a(os_core.o)
OSFlagFreeList      0x4               ../lab5_bsp/\libucosii_bsp.a(os_core.o)
OSStatRdy           0x1               ../lab5_bsp/\libucosii_bsp.a(os_core.o)
OSTCBPrioTbl        0x54              ../lab5_bsp/\libucosii_bsp.a(os_core.o)
task5_stk           0x2000            obj/default/hello_ucosii.o
alt_envsem          0x4               ../lab5_bsp/\libucosii_bsp.a(alt_env_lock.o)
OSIdleCtrRun        0x4               ../lab5_bsp/\libucosii_bsp.a(os_core.o)

Memory Configuration

Name             Origin             Length             Attributes
reset            0x00800000         0x00000020
sdram_BEFORE_EXCEPTION 0x00800020         0x0057e400
sdram            0x00d7e420         0x00281be0
*default*        0x00000000         0xffffffff

Linker script and memory map

LOAD ../lab5_bsp//obj/HAL/src/crt0.o
LOAD obj/default/drivers/drivers.o
LOAD obj/default/fonts/tahomabold_20.o
LOAD obj/default/fonts/tahomabold_32.o
LOAD obj/default/frame.o
LOAD obj/default/graphic_lib/draw_gimps.o
LOAD obj/default/graphic_lib/gimp_bmp.o
LOAD obj/default/graphic_lib/simple_graphics.o
LOAD obj/default/graphic_lib/simple_text.o
LOAD obj/default/hello_ucosii.o
LOAD obj/default/imagenes/back_down.o
LOAD obj/default/imagenes/back_up.o
LOAD obj/default/imagenes/ford_down.o
LOAD obj/default/imagenes/ford_up.o
LOAD obj/default/imagenes/pause_down.o
LOAD obj/default/imagenes/pause_up.o
LOAD obj/default/imagenes/play_down.o
LOAD obj/default/imagenes/play_up.o
LOAD obj/default/imagenes/stop_down.o
LOAD obj/default/imagenes/stop_up.o
LOAD obj/default/song/song.o
LOAD obj/default/student_code/student_code.o
LOAD obj/default/vip_fr.o
LOAD c:/altera/13.0sp1/nios2eds/bin/gnu/h-i686-mingw32/bin/../lib/gcc/nios2-elf/4.1.2/../../../../nios2-elf/lib\libstdc++.a
LOAD c:/altera/13.0sp1/nios2eds/bin/gnu/h-i686-mingw32/bin/../lib/gcc/nios2-elf/4.1.2/../../../../nios2-elf/lib\libm.a
LOAD c:/altera/13.0sp1/nios2eds/bin/gnu/h-i686-mingw32/bin/../lib/gcc/nios2-elf/4.1.2\libgcc.a
START GROUP
LOAD c:/altera/13.0sp1/nios2eds/bin/gnu/h-i686-mingw32/bin/../lib/gcc/nios2-elf/4.1.2/../../../../nios2-elf/lib\libc.a
LOAD c:/altera/13.0sp1/nios2eds/bin/gnu/h-i686-mingw32/bin/../lib/gcc/nios2-elf/4.1.2\libgcc.a
LOAD ../lab5_bsp/\libucosii_bsp.a
LOAD c:/altera/13.0sp1/nios2eds/bin/gnu/h-i686-mingw32/bin/../lib/gcc/nios2-elf/4.1.2/../../../../nios2-elf/lib\libm.a
END GROUP
LOAD c:/altera/13.0sp1/nios2eds/bin/gnu/h-i686-mingw32/bin/../lib/gcc/nios2-elf/4.1.2\libgcc.a
                0x00800000                __alt_mem_sdram = 0x800000

.entry          0x00800000       0x20
 *(.entry)
 .entry         0x00800000       0x20 ../lab5_bsp//obj/HAL/src/crt0.o
                0x00800000                __reset

.exceptions     0x00d7e420      0x150
                0x00d7e420                PROVIDE (__ram_exceptions_start, ABSOLUTE (.))
                0x00d7e420                . = ALIGN (0x20)
 *(.irq)
 *(.exceptions.entry.label)
 .exceptions.entry.label
                0x00d7e420        0x0 ../lab5_bsp/\libucosii_bsp.a(alt_irq_entry.o)
                0x00d7e420                alt_irq_entry
 .exceptions.entry.label
                0x00d7e420        0x0 ../lab5_bsp/\libucosii_bsp.a(alt_exception_entry.o)
                0x00d7e420                alt_exception
 *(.exceptions.entry.user)
 *(.exceptions.entry)
 .exceptions.entry
                0x00d7e420       0x54 ../lab5_bsp/\libucosii_bsp.a(alt_exception_entry.o)
 *(.exceptions.irqtest.user)
 *(.exceptions.irqtest)
 .exceptions.irqtest
                0x00d7e474       0x10 ../lab5_bsp/\libucosii_bsp.a(alt_irq_entry.o)
 *(.exceptions.irqhandler.user)
 *(.exceptions.irqhandler)
 .exceptions.irqhandler
                0x00d7e484        0x4 ../lab5_bsp/\libucosii_bsp.a(alt_irq_entry.o)
 *(.exceptions.irqreturn.user)
 *(.exceptions.irqreturn)
 .exceptions.irqreturn
                0x00d7e488        0x4 ../lab5_bsp/\libucosii_bsp.a(alt_irq_entry.o)
 *(.exceptions.notirq.label)
 .exceptions.notirq.label
                0x00d7e48c        0x0 ../lab5_bsp/\libucosii_bsp.a(alt_irq_entry.o)
 *(.exceptions.notirq.user)
 *(.exceptions.notirq)
 .exceptions.notirq
                0x00d7e48c        0x8 ../lab5_bsp/\libucosii_bsp.a(alt_exception_entry.o)
 *(.exceptions.soft.user)
 *(.exceptions.soft)
 *(.exceptions.unknown.user)
 *(.exceptions.unknown)
 .exceptions.unknown
                0x00d7e494        0x4 ../lab5_bsp/\libucosii_bsp.a(alt_exception_entry.o)
 *(.exceptions.exit.label)
 .exceptions.exit.label
                0x00d7e498        0x0 ../lab5_bsp/\libucosii_bsp.a(alt_irq_entry.o)
 .exceptions.exit.label
                0x00d7e498        0x0 ../lab5_bsp/\libucosii_bsp.a(alt_exception_entry.o)
 *(.exceptions.exit.user)
 *(.exceptions.exit)
 .exceptions.exit
                0x00d7e498       0x54 ../lab5_bsp/\libucosii_bsp.a(alt_exception_entry.o)
 *(.exceptions)
 .exceptions    0x00d7e4ec       0x84 ../lab5_bsp/\libucosii_bsp.a(alt_irq_handler.o)
                0x00d7e4ec                alt_irq_handler
                0x00d7e570                PROVIDE (__ram_exceptions_end, ABSOLUTE (.))
                0x00d7e420                PROVIDE (__flash_exceptions_start, LOADADDR (.exceptions))

.text           0x00d7e570    0x16bc4
                0x00d7e570                PROVIDE (stext, ABSOLUTE (.))
 *(.interp)
 *(.hash)
 *(.dynsym)
 *(.dynstr)
 *(.gnu.version)
 *(.gnu.version_d)
 *(.gnu.version_r)
 *(.rel.init)
 *(.rela.init)
 *(.rel.text .rel.text.* .rel.gnu.linkonce.t.*)
 *(.rela.text .rela.text.* .rela.gnu.linkonce.t.*)
 *(.rel.fini)
 *(.rela.fini)
 *(.rel.rodata .rel.rodata.* .rel.gnu.linkonce.r.*)
 *(.rela.rodata .rela.rodata.* .rela.gnu.linkonce.r.*)
 *(.rel.data .rel.data.* .rel.gnu.linkonce.d.*)
 *(.rela.data .rela.data.* .rela.gnu.linkonce.d.*)
 *(.rel.tdata .rel.tdata.* .rel.gnu.linkonce.td.*)
 *(.rela.tdata .rela.tdata.* .rela.gnu.linkonce.td.*)
 *(.rel.tbss .rel.tbss.* .rel.gnu.linkonce.tb.*)
 *(.rela.tbss .rela.tbss.* .rela.gnu.linkonce.tb.*)
 *(.rel.ctors)
 *(.rela.ctors)
 *(.rel.dtors)
 *(.rela.dtors)
 *(.rel.got)
 *(.rela.got)
 *(.rel.sdata .rel.sdata.* .rel.gnu.linkonce.s.*)
 *(.rela.sdata .rela.sdata.* .rela.gnu.linkonce.s.*)
 *(.rel.sbss .rel.sbss.* .rel.gnu.linkonce.sb.*)
 *(.rela.sbss .rela.sbss.* .rela.gnu.linkonce.sb.*)
 *(.rel.sdata2 .rel.sdata2.* .rel.gnu.linkonce.s2.*)
 *(.rela.sdata2 .rela.sdata2.* .rela.gnu.linkonce.s2.*)
 *(.rel.sbss2 .rel.sbss2.* .rel.gnu.linkonce.sb2.*)
 *(.rela.sbss2 .rela.sbss2.* .rela.gnu.linkonce.sb2.*)
 *(.rel.bss .rel.bss.* .rel.gnu.linkonce.b.*)
 *(.rela.bss .rela.bss.* .rela.gnu.linkonce.b.*)
 *(.rel.plt)
 *(.rela.plt)
 *(.rel.dyn)
 *(.init)
 *(.plt)
 *(.text .stub .text.* .gnu.linkonce.t.*)
 .text          0x00d7e570       0x3c ../lab5_bsp//obj/HAL/src/crt0.o
                0x00d7e570                _start
 .text          0x00d7e5ac     0x17f4 obj/default/drivers/drivers.o
                0x00d7e5ac                Sleep
                0x00d7e5f8                read_keyboard
                0x00d7e608                mouse_pos
                0x00d7e6b8                audio_dac_fifo_full
                0x00d7e6cc                audio_selector
                0x00d7e6e0                select_signal
                0x00d7e6f4                select_modulation
                0x00d7e708                set_note
                0x00d7e740                Beep
                0x00d7e77c                tetris
                0x00d7ed9c                mario
                0x00d7f63c                gloria
                0x00d7fb14                starwars
                0x00d7fc74                set_audio_frequency_audio_controller
                0x00d7fcac                init_audio_hw
                0x00d7fce8                pause_wav
                0x00d7fd00                play_wav
                0x00d7fd1c                stop_wav
                0x00d7fd40                audio_dac_wr_fifo
 .text          0x00d7fda0        0x0 obj/default/fonts/tahomabold_20.o
 .text          0x00d7fda0        0x0 obj/default/fonts/tahomabold_32.o
 .text          0x00d7fda0      0x144 obj/default/frame.o
                0x00d7fda0                cleanscreen
                0x00d7fde8                GetFrameBuffer
                0x00d7fe04                ConfigVFR
 .text          0x00d7fee4      0x53c obj/default/graphic_lib/draw_gimps.o
                0x00d7fee4                AsVidCopyImageToBuffer2
                0x00d7ffd0                AsVidCopyImageToBuffer3
                0x00d800cc                DispIMAGE_from_gimp
                0x00d80190                DispIMAGE_fit
                0x00d8027c                AsVidCopyImageToBuffer
                0x00d80368                DispIMAGE
 .text          0x00d80420      0x630 obj/default/graphic_lib/gimp_bmp.o
                0x00d80420                copy_pix_map_32_to_32
                0x00d804b4                copy_pix_map_32_to_24
                0x00d80564                copy_pix_map_32_to_16
                0x00d80654                copy_pix_map_24_to_32
                0x00d80714                copy_pix_map_24_to_24
                0x00d807b0                copy_pix_map_24_to_16
                0x00d808a0                load_gimp_bmp
 .text          0x00d80a50     0x21ac obj/default/graphic_lib/simple_graphics.o
                0x00d80a50                vid_merge_colors
                0x00d80a6c                vid_color_convert24_16
                0x00d80a9c                vid_color_convert16_24
                0x00d80ac4                max3
                0x00d80adc                min3
                0x00d80af4                max_diff3
                0x00d80b24                vid_put_pixel_in_span_map
                0x00d80b68                CropImage16
                0x00d80c8c                CopyImage16
                0x00d80d40                vid_scroll_string_quit
                0x00d80d70                vid_copy_line_to_frame_buffer
                0x00d80f5c                vid_draw_horiz_line
                0x00d811b8                vid_paint_block
                0x00d81374                vid_clean_screen
                0x00d813a4                vid_get_pixel
                0x00d81408                vid_set_pixel
                0x00d814f4                vid_draw_sloped_line
                0x00d81658                vid_draw_line
                0x00d816c8                vid_print_char
                0x00d817a0                vid_print_string
                0x00d81880                vid_move_block
                0x00d819bc                vid_scroll_string_init
                0x00d81ab0                vid_bres_scan_edges
                0x00d81c04                vid_scroll_string
                0x00d81e7c                vid_draw_box
                0x00d81ff8                vid_draw_triangle
                0x00d82340                vid_round_corner_points
                0x00d827d8                vid_draw_circle
                0x00d828f0                vid_draw_round_corner_box
 .text          0x00d82bfc      0xc10 obj/default/graphic_lib/simple_text.o
                0x00d82bfc                seperate_color_channels
                0x00d82c94                merge_color_channels
                0x00d82d14                vid_string_pixel_length_alpha
                0x00d82d9c                read_from_frame
                0x00d82ef8                alpha_blending
                0x00d831d0                vid_print_char_alpha
                0x00d83668                vid_print_string_alpha
 .text          0x00d8380c     0x1390 obj/default/hello_ucosii.o
                0x00d8380c                send_audio_fifo
                0x00d83888                task1
                0x00d83914                draw_button
                0x00d83a90                task2
                0x00d846f0                init_background
                0x00d84abc                main
 .text          0x00d84b9c        0x0 obj/default/imagenes/back_down.o
 .text          0x00d84b9c        0x0 obj/default/imagenes/back_up.o
 .text          0x00d84b9c        0x0 obj/default/imagenes/ford_down.o
 .text          0x00d84b9c        0x0 obj/default/imagenes/ford_up.o
 .text          0x00d84b9c        0x0 obj/default/imagenes/pause_down.o
 .text          0x00d84b9c        0x0 obj/default/imagenes/pause_up.o
 .text          0x00d84b9c        0x0 obj/default/imagenes/play_down.o
 .text          0x00d84b9c        0x0 obj/default/imagenes/play_up.o
 .text          0x00d84b9c        0x0 obj/default/imagenes/stop_down.o
 .text          0x00d84b9c        0x0 obj/default/imagenes/stop_up.o
 .text          0x00d84b9c        0x0 obj/default/song/song.o
 .text          0x00d84b9c       0x9c obj/default/student_code/student_code.o
                0x00d84b9c                init_lfsr_interrupt
                0x00d84be4                handle_lfsr_interrupts
 .text          0x00d84c38      0x2b8 obj/default/vip_fr.o
                0x00d84c38                VIPFR_GetDrawFrame
                0x00d84c50                VIPFR_ReserveBackground
                0x00d84c9c                FrameReader_Go
                0x00d84ca8                FrameReader_SelectFrame
                0x00d84cb4                FrameReader_SetFrame1
                0x00d84cdc                FrameReader_SetFrame0
                0x00d84d04                VIPFR_SetFrameSize
                0x00d84d8c                VIPFR_Go
                0x00d84d9c                DRAW_EraseScreen
                0x00d84dec                VIPFR_ActiveDrawFrame
                0x00d84e20                VIPFR_UnInit
                0x00d84e3c                VIPFR_Init
 .text          0x00d84ef0       0x94 c:/altera/13.0sp1/nios2eds/bin/gnu/h-i686-mingw32/bin/../lib/gcc/nios2-elf/4.1.2\libgcc.a(_sf_to_si.o)
                0x00d84ef0                __fixsfsi
 .text          0x00d84f84      0x14c c:/altera/13.0sp1/nios2eds/bin/gnu/h-i686-mingw32/bin/../lib/gcc/nios2-elf/4.1.2\libgcc.a(lib2-divmod.o)
                0x00d85000                __divsi3
                0x00d85060                __modsi3
                0x00d850c0                __udivsi3
                0x00d850c8                __umodsi3
 .text          0x00d850d0       0xc8 c:/altera/13.0sp1/nios2eds/bin/gnu/h-i686-mingw32/bin/../lib/gcc/nios2-elf/4.1.2\libgcc.a(_unpack_sf.o)
                0x00d850d0                __unpack_f
 .text          0x00d85198       0x28 c:/altera/13.0sp1/nios2eds/bin/gnu/h-i686-mingw32/bin/../lib/gcc/nios2-elf/4.1.2/../../../../nios2-elf/lib\libc.a(lib_a-malloc.o)
                0x00d85198                free
                0x00d851ac                malloc
 .text          0x00d851c0      0x740 c:/altera/13.0sp1/nios2eds/bin/gnu/h-i686-mingw32/bin/../lib/gcc/nios2-elf/4.1.2/../../../../nios2-elf/lib\libc.a(lib_a-mallocr.o)
                0x00d851c0                _malloc_r
 .text          0x00d85900       0xa0 c:/altera/13.0sp1/nios2eds/bin/gnu/h-i686-mingw32/bin/../lib/gcc/nios2-elf/4.1.2/../../../../nios2-elf/lib\libc.a(lib_a-memcpy.o)
                0x00d85900                memcpy
 .text          0x00d859a0       0x98 c:/altera/13.0sp1/nios2eds/bin/gnu/h-i686-mingw32/bin/../lib/gcc/nios2-elf/4.1.2/../../../../nios2-elf/lib\libc.a(lib_a-memset.o)
                0x00d859a0                memset
 .text          0x00d85a38       0x78 c:/altera/13.0sp1/nios2eds/bin/gnu/h-i686-mingw32/bin/../lib/gcc/nios2-elf/4.1.2/../../../../nios2-elf/lib\libc.a(lib_a-printf.o)
                0x00d85a38                printf
                0x00d85a7c                _printf_r
 .text          0x00d85ab0       0x70 c:/altera/13.0sp1/nios2eds/bin/gnu/h-i686-mingw32/bin/../lib/gcc/nios2-elf/4.1.2/../../../../nios2-elf/lib\libc.a(lib_a-sbrkr.o)
                0x00d85ab0                _sbrk_r
 .text          0x00d85b20       0x8c c:/altera/13.0sp1/nios2eds/bin/gnu/h-i686-mingw32/bin/../lib/gcc/nios2-elf/4.1.2/../../../../nios2-elf/lib\libc.a(lib_a-strcpy.o)
                0x00d85b20                strcpy
 .text          0x00d85bac       0x74 c:/altera/13.0sp1/nios2eds/bin/gnu/h-i686-mingw32/bin/../lib/gcc/nios2-elf/4.1.2/../../../../nios2-elf/lib\libc.a(lib_a-strlen.o)
                0x00d85bac                strlen
 .text          0x00d85c20     0x1f28 c:/altera/13.0sp1/nios2eds/bin/gnu/h-i686-mingw32/bin/../lib/gcc/nios2-elf/4.1.2/../../../../nios2-elf/lib\libc.a(lib_a-vfprintf.o)
                0x00d85c78                ___vfprintf_internal_r
                0x00d87b24                __vfprintf_internal
 .text          0x00d87b48      0x13c c:/altera/13.0sp1/nios2eds/bin/gnu/h-i686-mingw32/bin/../lib/gcc/nios2-elf/4.1.2/../../../../nios2-elf/lib\libc.a(lib_a-wsetup.o)
                0x00d87b48                __swsetup_r
 .text          0x00d87c84     0x17cc c:/altera/13.0sp1/nios2eds/bin/gnu/h-i686-mingw32/bin/../lib/gcc/nios2-elf/4.1.2/../../../../nios2-elf/lib\libc.a(lib_a-dtoa.o)
                0x00d87e9c                _dtoa_r
 .text          0x00d89450      0x230 c:/altera/13.0sp1/nios2eds/bin/gnu/h-i686-mingw32/bin/../lib/gcc/nios2-elf/4.1.2/../../../../nios2-elf/lib\libc.a(lib_a-fflush.o)
                0x00d89450                _fflush_r
                0x00d8964c                fflush
 .text          0x00d89680      0x2c0 c:/altera/13.0sp1/nios2eds/bin/gnu/h-i686-mingw32/bin/../lib/gcc/nios2-elf/4.1.2/../../../../nios2-elf/lib\libc.a(lib_a-findfp.o)
                0x00d896d8                __sfp_lock_acquire
                0x00d896dc                __sfp_lock_release
                0x00d896e0                __sinit_lock_acquire
                0x00d896e4                __sinit_lock_release
                0x00d896e8                __sinit
                0x00d8979c                __fp_unlock_all
                0x00d897b4                __fp_lock_all
                0x00d897cc                _cleanup_r
                0x00d897d8                _cleanup
                0x00d897e8                __sfmoreglue
                0x00d89850                __sfp
 .text          0x00d89940      0x440 c:/altera/13.0sp1/nios2eds/bin/gnu/h-i686-mingw32/bin/../lib/gcc/nios2-elf/4.1.2/../../../../nios2-elf/lib\libc.a(lib_a-freer.o)
                0x00d89940                _malloc_trim_r
                0x00d89a6c                _free_r
 .text          0x00d89d80      0x49c c:/altera/13.0sp1/nios2eds/bin/gnu/h-i686-mingw32/bin/../lib/gcc/nios2-elf/4.1.2/../../../../nios2-elf/lib\libc.a(lib_a-fvwrite.o)
                0x00d89d80                __sfvwrite_r
 .text          0x00d8a21c      0x180 c:/altera/13.0sp1/nios2eds/bin/gnu/h-i686-mingw32/bin/../lib/gcc/nios2-elf/4.1.2/../../../../nios2-elf/lib\libc.a(lib_a-fwalk.o)
                0x00d8a21c                _fwalk_reent
                0x00d8a2e4                _fwalk
 .text          0x00d8a39c        0x0 c:/altera/13.0sp1/nios2eds/bin/gnu/h-i686-mingw32/bin/../lib/gcc/nios2-elf/4.1.2/../../../../nios2-elf/lib\libc.a(lib_a-impure.o)
 .text          0x00d8a39c        0x0 c:/altera/13.0sp1/nios2eds/bin/gnu/h-i686-mingw32/bin/../lib/gcc/nios2-elf/4.1.2/../../../../nios2-elf/lib\libc.a(lib_a-int_errno.o)
 .text          0x00d8a39c       0xc4 c:/altera/13.0sp1/nios2eds/bin/gnu/h-i686-mingw32/bin/../lib/gcc/nios2-elf/4.1.2/../../../../nios2-elf/lib\libc.a(lib_a-locale.o)
                0x00d8a39c                __locale_charset
                0x00d8a3a4                _localeconv_r
                0x00d8a3b0                localeconv
                0x00d8a3c0                _setlocale_r
                0x00d8a444                setlocale
 .text          0x00d8a460      0x194 c:/altera/13.0sp1/nios2eds/bin/gnu/h-i686-mingw32/bin/../lib/gcc/nios2-elf/4.1.2/../../../../nios2-elf/lib\libc.a(lib_a-makebuf.o)
                0x00d8a460                __smakebuf_r
 .text          0x00d8a5f4       0xe4 c:/altera/13.0sp1/nios2eds/bin/gnu/h-i686-mingw32/bin/../lib/gcc/nios2-elf/4.1.2/../../../../nios2-elf/lib\libc.a(lib_a-memchr.o)
                0x00d8a5f4                memchr
 .text          0x00d8a6d8       0xe0 c:/altera/13.0sp1/nios2eds/bin/gnu/h-i686-mingw32/bin/../lib/gcc/nios2-elf/4.1.2/../../../../nios2-elf/lib\libc.a(lib_a-memmove.o)
                0x00d8a6d8                memmove
 .text          0x00d8a7b8      0xff4 c:/altera/13.0sp1/nios2eds/bin/gnu/h-i686-mingw32/bin/../lib/gcc/nios2-elf/4.1.2/../../../../nios2-elf/lib\libc.a(lib_a-mprec.o)
                0x00d8a7b8                _Bfree
                0x00d8a7e0                __hi0bits
                0x00d8a850                __lo0bits
                0x00d8a914                __mcmp
                0x00d8a974                __ulp
                0x00d8a9f4                __b2d
                0x00d8ab14                __ratio
                0x00d8abc4                _mprec_log10
                0x00d8ac58                __copybits
                0x00d8acb0                __any_on
                0x00d8ad38                _Balloc
                0x00d8adf4                __d2b
                0x00d8af70                __mdiff
                0x00d8b0fc                __lshift
                0x00d8b248                __multiply
                0x00d8b430                __i2b
                0x00d8b46c                __multadd
                0x00d8b56c                __pow5mult
                0x00d8b68c                __s2b
 .text          0x00d8b7ac      0x5f4 c:/altera/13.0sp1/nios2eds/bin/gnu/h-i686-mingw32/bin/../lib/gcc/nios2-elf/4.1.2/../../../../nios2-elf/lib\libc.a(lib_a-reallocr.o)
                0x00d8b7ac                _realloc_r
 .text          0x00d8bda0       0x40 c:/altera/13.0sp1/nios2eds/bin/gnu/h-i686-mingw32/bin/../lib/gcc/nios2-elf/4.1.2/../../../../nios2-elf/lib\libc.a(lib_a-s_isinfd.o)
                0x00d8bda0                __isinfd
 .text          0x00d8bde0       0x30 c:/altera/13.0sp1/nios2eds/bin/gnu/h-i686-mingw32/bin/../lib/gcc/nios2-elf/4.1.2/../../../../nios2-elf/lib\libc.a(lib_a-s_isnand.o)
                0x00d8bde0                __isnand
 .text          0x00d8be10      0x14c c:/altera/13.0sp1/nios2eds/bin/gnu/h-i686-mingw32/bin/../lib/gcc/nios2-elf/4.1.2/../../../../nios2-elf/lib\libc.a(lib_a-stdio.o)
                0x00d8be10                __sclose
                0x00d8be18                __sseek
                0x00d8be80                __swrite
                0x00d8befc                __sread
 .text          0x00d8bf5c       0xbc c:/altera/13.0sp1/nios2eds/bin/gnu/h-i686-mingw32/bin/../lib/gcc/nios2-elf/4.1.2/../../../../nios2-elf/lib\libc.a(lib_a-strcmp.o)
                0x00d8bf5c                strcmp
 .text          0x00d8c018       0x78 c:/altera/13.0sp1/nios2eds/bin/gnu/h-i686-mingw32/bin/../lib/gcc/nios2-elf/4.1.2/../../../../nios2-elf/lib\libc.a(lib_a-writer.o)
                0x00d8c018                _write_r
 .text          0x00d8c090       0xb4 c:/altera/13.0sp1/nios2eds/bin/gnu/h-i686-mingw32/bin/../lib/gcc/nios2-elf/4.1.2/../../../../nios2-elf/lib\libc.a(lib_a-callocr.o)
                0x00d8c090                _calloc_r
 .text          0x00d8c144       0x70 c:/altera/13.0sp1/nios2eds/bin/gnu/h-i686-mingw32/bin/../lib/gcc/nios2-elf/4.1.2/../../../../nios2-elf/lib\libc.a(lib_a-closer.o)
                0x00d8c144                _close_r
 .text          0x00d8c1b4      0x124 c:/altera/13.0sp1/nios2eds/bin/gnu/h-i686-mingw32/bin/../lib/gcc/nios2-elf/4.1.2/../../../../nios2-elf/lib\libc.a(lib_a-fclose.o)
                0x00d8c1b4                _fclose_r
                0x00d8c2c4                fclose
 .text          0x00d8c2d8       0x74 c:/altera/13.0sp1/nios2eds/bin/gnu/h-i686-mingw32/bin/../lib/gcc/nios2-elf/4.1.2/../../../../nios2-elf/lib\libc.a(lib_a-fstatr.o)
                0x00d8c2d8                _fstat_r
 .text          0x00d8c34c       0x70 c:/altera/13.0sp1/nios2eds/bin/gnu/h-i686-mingw32/bin/../lib/gcc/nios2-elf/4.1.2/../../../../nios2-elf/lib\libc.a(lib_a-isattyr.o)
                0x00d8c34c                _isatty_r
 .text          0x00d8c3bc       0x78 c:/altera/13.0sp1/nios2eds/bin/gnu/h-i686-mingw32/bin/../lib/gcc/nios2-elf/4.1.2/../../../../nios2-elf/lib\libc.a(lib_a-lseekr.o)
                0x00d8c3bc                _lseek_r
 .text          0x00d8c434       0x78 c:/altera/13.0sp1/nios2eds/bin/gnu/h-i686-mingw32/bin/../lib/gcc/nios2-elf/4.1.2/../../../../nios2-elf/lib\libc.a(lib_a-readr.o)
                0x00d8c434                _read_r
 .text          0x00d8c4ac      0x5dc c:/altera/13.0sp1/nios2eds/bin/gnu/h-i686-mingw32/bin/../lib/gcc/nios2-elf/4.1.2\libgcc.a(_udivdi3.o)
                0x00d8c4ac                __udivdi3
 .text          0x00d8ca88      0x5b0 c:/altera/13.0sp1/nios2eds/bin/gnu/h-i686-mingw32/bin/../lib/gcc/nios2-elf/4.1.2\libgcc.a(_umoddi3.o)
                0x00d8ca88                __umoddi3
 .text          0x00d8d038      0x504 c:/altera/13.0sp1/nios2eds/bin/gnu/h-i686-mingw32/bin/../lib/gcc/nios2-elf/4.1.2\libgcc.a(_addsub_df.o)
                0x00d8d448                __subdf3
                0x00d8d4c8                __adddf3
 .text          0x00d8d53c      0x3c4 c:/altera/13.0sp1/nios2eds/bin/gnu/h-i686-mingw32/bin/../lib/gcc/nios2-elf/4.1.2\libgcc.a(_mul_df.o)
                0x00d8d53c                __muldf3
 .text          0x00d8d900      0x258 c:/altera/13.0sp1/nios2eds/bin/gnu/h-i686-mingw32/bin/../lib/gcc/nios2-elf/4.1.2\libgcc.a(_div_df.o)
                0x00d8d900                __divdf3
 .text          0x00d8db58       0x88 c:/altera/13.0sp1/nios2eds/bin/gnu/h-i686-mingw32/bin/../lib/gcc/nios2-elf/4.1.2\libgcc.a(_eq_df.o)
                0x00d8db58                __eqdf2
 .text          0x00d8dbe0       0x88 c:/altera/13.0sp1/nios2eds/bin/gnu/h-i686-mingw32/bin/../lib/gcc/nios2-elf/4.1.2\libgcc.a(_ne_df.o)
                0x00d8dbe0                __nedf2
 .text          0x00d8dc68       0x88 c:/altera/13.0sp1/nios2eds/bin/gnu/h-i686-mingw32/bin/../lib/gcc/nios2-elf/4.1.2\libgcc.a(_gt_df.o)
                0x00d8dc68                __gtdf2
 .text          0x00d8dcf0       0x88 c:/altera/13.0sp1/nios2eds/bin/gnu/h-i686-mingw32/bin/../lib/gcc/nios2-elf/4.1.2\libgcc.a(_ge_df.o)
                0x00d8dcf0                __gedf2
 .text          0x00d8dd78       0x88 c:/altera/13.0sp1/nios2eds/bin/gnu/h-i686-mingw32/bin/../lib/gcc/nios2-elf/4.1.2\libgcc.a(_lt_df.o)
                0x00d8dd78                __ltdf2
 .text          0x00d8de00       0xf8 c:/altera/13.0sp1/nios2eds/bin/gnu/h-i686-mingw32/bin/../lib/gcc/nios2-elf/4.1.2\libgcc.a(_si_to_df.o)
                0x00d8de00                __floatsidf
 .text          0x00d8def8       0xd8 c:/altera/13.0sp1/nios2eds/bin/gnu/h-i686-mingw32/bin/../lib/gcc/nios2-elf/4.1.2\libgcc.a(_df_to_si.o)
                0x00d8def8                __fixdfsi
 .text          0x00d8dfd0        0x0 c:/altera/13.0sp1/nios2eds/bin/gnu/h-i686-mingw32/bin/../lib/gcc/nios2-elf/4.1.2\libgcc.a(_thenan_df.o)
 .text          0x00d8dfd0      0x194 c:/altera/13.0sp1/nios2eds/bin/gnu/h-i686-mingw32/bin/../lib/gcc/nios2-elf/4.1.2\libgcc.a(_usi_to_df.o)
                0x00d8dfd0                __floatunsidf
 .text          0x00d8e164       0x98 c:/altera/13.0sp1/nios2eds/bin/gnu/h-i686-mingw32/bin/../lib/gcc/nios2-elf/4.1.2\libgcc.a(_muldi3.o)
                0x00d8e164                __muldi3
 .text          0x00d8e1fc        0x0 c:/altera/13.0sp1/nios2eds/bin/gnu/h-i686-mingw32/bin/../lib/gcc/nios2-elf/4.1.2\libgcc.a(_clz.o)
 .text          0x00d8e1fc       0x80 c:/altera/13.0sp1/nios2eds/bin/gnu/h-i686-mingw32/bin/../lib/gcc/nios2-elf/4.1.2\libgcc.a(_clzsi2.o)
                0x00d8e1fc                __clzsi2
 .text          0x00d8e27c      0x314 c:/altera/13.0sp1/nios2eds/bin/gnu/h-i686-mingw32/bin/../lib/gcc/nios2-elf/4.1.2\libgcc.a(_pack_df.o)
                0x00d8e27c                __pack_d
 .text          0x00d8e590      0x138 c:/altera/13.0sp1/nios2eds/bin/gnu/h-i686-mingw32/bin/../lib/gcc/nios2-elf/4.1.2\libgcc.a(_unpack_df.o)
                0x00d8e590                __unpack_d
 .text          0x00d8e6c8       0xc8 c:/altera/13.0sp1/nios2eds/bin/gnu/h-i686-mingw32/bin/../lib/gcc/nios2-elf/4.1.2\libgcc.a(_fpcmp_parts_df.o)
                0x00d8e6c8                __fpcmp_parts_d
 .text          0x00d8e790       0xdc ../lab5_bsp/\libucosii_bsp.a(alt_close.o)
                0x00d8e790                close
 .text          0x00d8e86c        0x4 ../lab5_bsp/\libucosii_bsp.a(alt_dcache_flush_all.o)
                0x00d8e86c                alt_dcache_flush_all
 .text          0x00d8e870        0x8 ../lab5_bsp/\libucosii_bsp.a(alt_dev.o)
 .text          0x00d8e878        0x0 ../lab5_bsp/\libucosii_bsp.a(alt_errno.o)
 .text          0x00d8e878       0x80 ../lab5_bsp/\libucosii_bsp.a(alt_fstat.o)
                0x00d8e878                fstat
 .text          0x00d8e8f8       0xb8 ../lab5_bsp/\libucosii_bsp.a(alt_iic.o)
                0x00d8e8f8                alt_ic_irq_enabled
                0x00d8e910                alt_ic_irq_enable
                0x00d8e950                alt_ic_irq_disable
                0x00d8e990                alt_ic_isr_register
 .text          0x00d8e9b0       0x68 ../lab5_bsp/\libucosii_bsp.a(alt_iic_isr_register.o)
                0x00d8e9b0                alt_iic_isr_register
 .text          0x00d8ea18        0x0 ../lab5_bsp/\libucosii_bsp.a(alt_irq_entry.o)
 .text          0x00d8ea18        0x0 ../lab5_bsp/\libucosii_bsp.a(alt_irq_handler.o)
 .text          0x00d8ea18        0x0 ../lab5_bsp/\libucosii_bsp.a(alt_irq_vars.o)
 .text          0x00d8ea18       0x84 ../lab5_bsp/\libucosii_bsp.a(alt_isatty.o)
                0x00d8ea18                isatty
 .text          0x00d8ea9c       0xc4 ../lab5_bsp/\libucosii_bsp.a(alt_load.o)
                0x00d8ea9c                alt_load
 .text          0x00d8eb60       0x98 ../lab5_bsp/\libucosii_bsp.a(alt_lseek.o)
                0x00d8eb60                lseek
 .text          0x00d8ebf8       0xa8 ../lab5_bsp/\libucosii_bsp.a(alt_main.o)
                0x00d8ebf8                alt_main
 .text          0x00d8eca0       0xf8 ../lab5_bsp/\libucosii_bsp.a(alt_read.o)
                0x00d8eca0                read
 .text          0x00d8ed98       0x24 ../lab5_bsp/\libucosii_bsp.a(alt_release_fd.o)
                0x00d8ed98                alt_release_fd
 .text          0x00d8edbc       0x50 ../lab5_bsp/\libucosii_bsp.a(alt_sbrk.o)
                0x00d8edbc                sbrk
 .text          0x00d8ee0c       0xe4 ../lab5_bsp/\libucosii_bsp.a(alt_tick.o)
                0x00d8ee0c                alt_alarm_stop
                0x00d8ee40                alt_tick
 .text          0x00d8eef0       0xf4 ../lab5_bsp/\libucosii_bsp.a(alt_write.o)
                0x00d8eef0                write
 .text          0x00d8efe4       0xb8 ../lab5_bsp/\libucosii_bsp.a(alt_env_lock.o)
                0x00d8efe4                __env_unlock
                0x00d8f01c                __env_lock
 .text          0x00d8f09c      0x124 ../lab5_bsp/\libucosii_bsp.a(alt_malloc_lock.o)
                0x00d8f09c                __malloc_unlock
                0x00d8f10c                __malloc_lock
 .text          0x00d8f1c0     0x1224 ../lab5_bsp/\libucosii_bsp.a(os_core.o)
                0x00d8f1c0                OSVersion
                0x00d8f1c8                OS_Dummy
                0x00d8f1cc                OS_EventTaskWait
                0x00d8f254                OS_EventTaskWaitMulti
                0x00d8f304                OS_EventTaskRemove
                0x00d8f350                OS_EventTaskRemoveMulti
                0x00d8f3b8                OS_EventTaskRdy
                0x00d8f4a8                OS_EventWaitListInit
                0x00d8f4c4                OS_MemClr
                0x00d8f4ec                OS_MemCopy
                0x00d8f558                OS_StrCopy
                0x00d8f598                OS_StrLen
                0x00d8f5c0                OS_TaskStatStkChk
                0x00d8f644                OS_Sched
                0x00d8f6d0                OSStart
                0x00d8f720                OSInit
                0x00d8f91c                OSEventNameGet
                0x00d8f9e0                OSEventNameSet
                0x00d8fac0                OSEventPendMulti
                0x00d8fe88                OSIntEnter
                0x00d8fec4                OSIntExit
                0x00d8ff70                OSSchedLock
                0x00d8ffb4                OSSchedUnlock
                0x00d90028                OSStatInit
                0x00d9008c                OSTimeTick
                0x00d901a4                OS_TaskIdle
                0x00d901d8                OS_TaskStat
                0x00d90260                OS_TCBInit
 .text          0x00d903e4        0x4 ../lab5_bsp/\libucosii_bsp.a(os_dbg.o)
                0x00d903e4                OSDebugInit
 .text          0x00d903e8      0xe48 ../lab5_bsp/\libucosii_bsp.a(os_flag.o)
                0x00d904b4                OS_FlagUnlink
                0x00d90580                OS_FlagInit
                0x00d90600                OSFlagQuery
                0x00d90660                OSFlagAccept
                0x00d90814                OSFlagCreate
                0x00d908a4                OSFlagDel
                0x00d90a4c                OSFlagNameGet
                0x00d90b14                OSFlagNameSet
                0x00d90bf8                OSFlagPend
                0x00d90fcc                OSFlagPendGetFlagsRdy
                0x00d90ff8                OSFlagPost
 .text          0x00d91230      0x41c ../lab5_bsp/\libucosii_bsp.a(os_mem.o)
                0x00d91230                OS_MemInit
                0x00d912a8                OSMemQuery
                0x00d91310                OSMemCreate
                0x00d91408                OSMemGet
                0x00d91478                OSMemNameGet
                0x00d91520                OSMemNameSet
                0x00d915e8                OSMemPut
 .text          0x00d9164c      0xaa8 ../lab5_bsp/\libucosii_bsp.a(os_q.o)
                0x00d9164c                OS_QInit
                0x00d916ac                OSQQuery
                0x00d9175c                OSQAccept
                0x00d91800                OSQCreate
                0x00d9190c                OSQDel
                0x00d91afc                OSQFlush
                0x00d91b50                OSQPend
                0x00d91d24                OSQPendAbort
                0x00d91e20                OSQPost
                0x00d91ee0                OSQPostFront
                0x00d91fa4                OSQPostOpt
 .text          0x00d920f4      0x6a0 ../lab5_bsp/\libucosii_bsp.a(os_sem.o)
                0x00d920f4                OSSemSet
                0x00d92164                OSSemAccept
                0x00d921ac                OSSemCreate
                0x00d9223c                OSSemDel
                0x00d923e4                OSSemPend
                0x00d92560                OSSemPendAbort
                0x00d92668                OSSemPost
                0x00d92708                OSSemQuery
 .text          0x00d92794      0xf98 ../lab5_bsp/\libucosii_bsp.a(os_task.o)
                0x00d92794                OS_TaskStkClr
                0x00d927cc                OSTaskQuery
                0x00d92894                OSTaskChangePrio
                0x00d92b68                OSTaskCreate
                0x00d92c88                OSTaskCreateExt
                0x00d92e0c                OSTaskDel
                0x00d93084                OSTaskDelReq
                0x00d93144                OSTaskNameGet
                0x00d93264                OSTaskNameSet
                0x00d9339c                OSTaskResume
                0x00d934c0                OSTaskStkChk
                0x00d935d4                OSTaskSuspend
 .text          0x00d9372c      0x3b0 ../lab5_bsp/\libucosii_bsp.a(os_time.o)
                0x00d9372c                OSTimeSet
                0x00d93750                OSTimeDly
                0x00d937f8                OSTimeDlyHMSM
                0x00d939a8                OSTimeDlyResume
                0x00d93ab8                OSTimeGet
 .text          0x00d93adc       0x7c ../lab5_bsp/\libucosii_bsp.a(alt_sys_init.o)
                0x00d93adc                alt_sys_init
                0x00d93b38                alt_irq_init
 .text          0x00d93b58       0x98 ../lab5_bsp/\libucosii_bsp.a(altera_avalon_jtag_uart_fd.o)
                0x00d93b58                altera_avalon_jtag_uart_ioctl_fd
                0x00d93b78                altera_avalon_jtag_uart_close_fd
                0x00d93ba0                altera_avalon_jtag_uart_write_fd
                0x00d93bc8                altera_avalon_jtag_uart_read_fd
 .text          0x00d93bf0      0x324 ../lab5_bsp/\libucosii_bsp.a(altera_avalon_jtag_uart_init.o)
                0x00d93bf0                altera_avalon_jtag_uart_close
                0x00d93cb8                altera_avalon_jtag_uart_init
 .text          0x00d93f14       0x74 ../lab5_bsp/\libucosii_bsp.a(altera_avalon_jtag_uart_ioctl.o)
                0x00d93f14                altera_avalon_jtag_uart_ioctl
 .text          0x00d93f88      0x1c4 ../lab5_bsp/\libucosii_bsp.a(altera_avalon_jtag_uart_read.o)
                0x00d93f88                altera_avalon_jtag_uart_read
 .text          0x00d9414c      0x1d0 ../lab5_bsp/\libucosii_bsp.a(altera_avalon_jtag_uart_write.o)
                0x00d9414c                altera_avalon_jtag_uart_write
 .text          0x00d9431c       0x8c ../lab5_bsp/\libucosii_bsp.a(altera_avalon_timer_sc.o)
                0x00d9431c                alt_avalon_timer_sc_init
 .text          0x00d943a8       0x94 ../lab5_bsp/\libucosii_bsp.a(alt_alarm_start.o)
                0x00d943a8                alt_alarm_start
 .text          0x00d9443c       0x70 ../lab5_bsp/\libucosii_bsp.a(alt_dev_llist_insert.o)
                0x00d9443c                alt_dev_llist_insert
 .text          0x00d944ac       0x50 ../lab5_bsp/\libucosii_bsp.a(alt_do_ctors.o)
                0x00d944ac                _do_ctors
 .text          0x00d944fc       0x50 ../lab5_bsp/\libucosii_bsp.a(alt_do_dtors.o)
                0x00d944fc                _do_dtors
 .text          0x00d9454c        0x0 ../lab5_bsp/\libucosii_bsp.a(alt_exception_entry.o)
 .text          0x00d9454c       0x20 ../lab5_bsp/\libucosii_bsp.a(alt_icache_flush_all.o)
                0x00d9454c                alt_icache_flush_all
 .text          0x00d9456c       0xfc ../lab5_bsp/\libucosii_bsp.a(alt_io_redirect.o)
                0x00d945d0                alt_io_redirect
 .text          0x00d94668      0x17c ../lab5_bsp/\libucosii_bsp.a(alt_open.o)
                0x00d94668                open
 .text          0x00d947e4        0x8 ../lab5_bsp/\libucosii_bsp.a(altera_nios2_qsys_irq.o)
                0x00d947e4                altera_nios2_qsys_irq_init
 .text          0x00d947ec       0xd0 ../lab5_bsp/\libucosii_bsp.a(os_cpu_a.o)
                0x00d947ec                OSCtxSw
                0x00d947ec                OSIntCtxSw
                0x00d94878                OSStartHighRdy
                0x00d94898                OSStartTsk
 .text          0x00d948bc      0x1ec ../lab5_bsp/\libucosii_bsp.a(os_cpu_c.o)
                0x00d948bc                OSTaskCreateHook
                0x00d948c0                OSTaskDelHook
                0x00d948c4                OSTaskSwHook
                0x00d948c8                OSTaskStatHook
                0x00d948cc                OSTimeTickHook
                0x00d948d0                OSInitHookBegin
                0x00d948d4                OSInitHookEnd
                0x00d948d8                OSTaskIdleHook
                0x00d948dc                OSTCBInitHook
                0x00d948e0                OSTaskStkInit
 .text          0x00d94aa8       0x70 ../lab5_bsp/\libucosii_bsp.a(alt_find_dev.o)
                0x00d94aa8                alt_find_dev
 .text          0x00d94b18       0xbc ../lab5_bsp/\libucosii_bsp.a(alt_find_file.o)
                0x00d94b18                alt_find_file
 .text          0x00d94bd4       0xb4 ../lab5_bsp/\libucosii_bsp.a(alt_get_fd.o)
                0x00d94bd4                alt_get_fd
 .text          0x00d94c88       0x3c ../lab5_bsp/\libucosii_bsp.a(alt_icache_flush.o)
                0x00d94c88                alt_icache_flush
 .text          0x00d94cc4       0x14 c:/altera/13.0sp1/nios2eds/bin/gnu/h-i686-mingw32/bin/../lib/gcc/nios2-elf/4.1.2/../../../../nios2-elf/lib\libc.a(lib_a-atexit.o)
                0x00d94cc4                atexit
 .text          0x00d94cd8       0x38 c:/altera/13.0sp1/nios2eds/bin/gnu/h-i686-mingw32/bin/../lib/gcc/nios2-elf/4.1.2/../../../../nios2-elf/lib\libc.a(lib_a-exit.o)
                0x00d94cd8                exit
 .text          0x00d94d10       0x74 c:/altera/13.0sp1/nios2eds/bin/gnu/h-i686-mingw32/bin/../lib/gcc/nios2-elf/4.1.2/../../../../nios2-elf/lib\libc.a(lib_a-memcmp.o)
                0x00d94d10                memcmp
 .text          0x00d94d84      0x134 c:/altera/13.0sp1/nios2eds/bin/gnu/h-i686-mingw32/bin/../lib/gcc/nios2-elf/4.1.2/../../../../nios2-elf/lib\libc.a(lib_a-__atexit.o)
                0x00d94d84                __register_exitproc
 .text          0x00d94eb8      0x1b4 c:/altera/13.0sp1/nios2eds/bin/gnu/h-i686-mingw32/bin/../lib/gcc/nios2-elf/4.1.2/../../../../nios2-elf/lib\libc.a(lib_a-__call_atexit.o)
                0x00d94ebc                __call_exitprocs
 .text          0x00d9506c       0xa4 c:/altera/13.0sp1/nios2eds/bin/gnu/h-i686-mingw32/bin/../lib/gcc/nios2-elf/4.1.2\libgcc.a(_fixunsdfsi.o)
                0x00d9506c                __fixunsdfsi
 .text          0x00d95110       0x20 ../lab5_bsp/\libucosii_bsp.a(alt_exit.o)
                0x00d95110                _exit
 *(.gnu.warning.*)
 *(.fini)
                0x00d95130                PROVIDE (__etext, ABSOLUTE (.))
                0x00d95130                PROVIDE (_etext, ABSOLUTE (.))
                0x00d95130                PROVIDE (etext, ABSOLUTE (.))
 *(.eh_frame_hdr)
                0x00d95130                . = ALIGN (0x4)
                0x00d95130                PROVIDE (__preinit_array_start, ABSOLUTE (.))
 *(.preinit_array)
                0x00d95130                PROVIDE (__preinit_array_end, ABSOLUTE (.))
                0x00d95130                PROVIDE (__init_array_start, ABSOLUTE (.))
 *(.init_array)
                0x00d95130                PROVIDE (__init_array_end, ABSOLUTE (.))
                0x00d95130                PROVIDE (__fini_array_start, ABSOLUTE (.))
 *(.fini_array)
                0x00d95130                PROVIDE (__fini_array_end, ABSOLUTE (.))
 *(.eh_frame)
 *(.gcc_except_table)
 *(.dynamic)
                0x00d95130                PROVIDE (__CTOR_LIST__, ABSOLUTE (.))
 *(.ctors)
 *(SORT(.ctors.*))
 .ctors.65535   0x00d95130        0x4 c:/altera/13.0sp1/nios2eds/bin/gnu/h-i686-mingw32/bin/../lib/gcc/nios2-elf/4.1.2/../../../../nios2-elf/lib\libc.a(lib_a-__call_atexit.o)
                0x00d95134                PROVIDE (__CTOR_END__, ABSOLUTE (.))
                0x00d95134                PROVIDE (__DTOR_LIST__, ABSOLUTE (.))
 *(.dtors)
 *(SORT(.dtors.*))
                0x00d95134                PROVIDE (__DTOR_END__, ABSOLUTE (.))
 *(.jcr)
                0x00d95134                . = ALIGN (0x4)

.rodata         0x00d95134   0x1973fc
                0x00d95134                PROVIDE (__ram_rodata_start, ABSOLUTE (.))
                0x00d95134                . = ALIGN (0x4)
 *(.rodata .rodata.* .gnu.linkonce.r.*)
 .rodata        0x00d95134     0x77f2 obj/default/fonts/tahomabold_20.o
 .rodata        0x00d9c926    0x12520 obj/default/fonts/tahomabold_32.o
 *fill*         0x00daee46        0x2 00
 .rodata.str1.4
                0x00daee48       0x10 obj/default/graphic_lib/draw_gimps.o
 .rodata.str1.4
                0x00daee58       0x2f obj/default/hello_ucosii.o
                                 0x30 (size before relaxing)
 *fill*         0x00daee87        0x1 00
 .rodata        0x00daee88     0x28cc obj/default/imagenes/back_down.o
                0x00daee88                back_down
 .rodata        0x00db1754     0x28cc obj/default/imagenes/back_up.o
                0x00db1754                back_up
 .rodata        0x00db4020     0x28cc obj/default/imagenes/ford_down.o
                0x00db4020                ford_down
 .rodata        0x00db68ec     0x28cc obj/default/imagenes/ford_up.o
                0x00db68ec                ford_up
 .rodata        0x00db91b8     0x8dd0 obj/default/imagenes/pause_down.o
                0x00db91b8                pause_down
 .rodata        0x00dc1f88     0x8dd0 obj/default/imagenes/pause_up.o
                0x00dc1f88                pause_up
 .rodata        0x00dcad58     0x7820 obj/default/imagenes/play_down.o
                0x00dcad58                play_down
 .rodata        0x00dd2578     0x7820 obj/default/imagenes/play_up.o
                0x00dd2578                play_up
 .rodata        0x00dd9d98     0x7f88 obj/default/imagenes/stop_down.o
                0x00dd9d98                stop_down
 .rodata        0x00de1d20     0x7f88 obj/default/imagenes/stop_up.o
                0x00de1d20                stop_up
 .rodata        0x00de9ca8   0x142440 obj/default/song/song.o
                0x00de9ca8                song
 .rodata.str1.4
                0x00f2c0e8       0x5e c:/altera/13.0sp1/nios2eds/bin/gnu/h-i686-mingw32/bin/../lib/gcc/nios2-elf/4.1.2/../../../../nios2-elf/lib\libc.a(lib_a-vfprintf.o)
                                 0x60 (size before relaxing)
 .rodata        0x00f2c146       0x20 c:/altera/13.0sp1/nios2eds/bin/gnu/h-i686-mingw32/bin/../lib/gcc/nios2-elf/4.1.2/../../../../nios2-elf/lib\libc.a(lib_a-vfprintf.o)
 *fill*         0x00f2c166        0x2 00
 .rodata.str1.4
                0x00f2c168       0x10 c:/altera/13.0sp1/nios2eds/bin/gnu/h-i686-mingw32/bin/../lib/gcc/nios2-elf/4.1.2/../../../../nios2-elf/lib\libc.a(lib_a-dtoa.o)
                                 0x14 (size before relaxing)
 .rodata.str1.4
                0x00f2c178        0x2 c:/altera/13.0sp1/nios2eds/bin/gnu/h-i686-mingw32/bin/../lib/gcc/nios2-elf/4.1.2/../../../../nios2-elf/lib\libc.a(lib_a-impure.o)
                                  0x4 (size before relaxing)
 *fill*         0x00f2c17a        0x2 00
 .rodata.str1.4
                0x00f2c17c        0xf c:/altera/13.0sp1/nios2eds/bin/gnu/h-i686-mingw32/bin/../lib/gcc/nios2-elf/4.1.2/../../../../nios2-elf/lib\libc.a(lib_a-locale.o)
                                 0x18 (size before relaxing)
 *fill*         0x00f2c18b        0x1 00
 .rodata        0x00f2c18c       0x30 c:/altera/13.0sp1/nios2eds/bin/gnu/h-i686-mingw32/bin/../lib/gcc/nios2-elf/4.1.2/../../../../nios2-elf/lib\libc.a(lib_a-locale.o)
 .rodata        0x00f2c1bc      0x124 c:/altera/13.0sp1/nios2eds/bin/gnu/h-i686-mingw32/bin/../lib/gcc/nios2-elf/4.1.2/../../../../nios2-elf/lib\libc.a(lib_a-mprec.o)
                0x00f2c1bc                __mprec_tens
                0x00f2c284                __mprec_bigtens
                0x00f2c2ac                __mprec_tinytens
 .rodata        0x00f2c2e0       0x14 c:/altera/13.0sp1/nios2eds/bin/gnu/h-i686-mingw32/bin/../lib/gcc/nios2-elf/4.1.2\libgcc.a(_thenan_df.o)
                0x00f2c2e0                __thenan_df
 .rodata        0x00f2c2f4      0x100 c:/altera/13.0sp1/nios2eds/bin/gnu/h-i686-mingw32/bin/../lib/gcc/nios2-elf/4.1.2\libgcc.a(_clz.o)
                0x00f2c2f4                __clz_tab
 .rodata.str1.4
                0x00f2c3f4        0xa ../lab5_bsp/\libucosii_bsp.a(alt_dev.o)
                                  0xc (size before relaxing)
 *fill*         0x00f2c3fe        0x2 00
 .rodata.str1.4
                0x00f2c400        0xf ../lab5_bsp/\libucosii_bsp.a(alt_main.o)
                                 0x10 (size before relaxing)
 *fill*         0x00f2c40f        0x1 00
 .rodata.str1.4
                0x00f2c410       0x20 ../lab5_bsp/\libucosii_bsp.a(os_core.o)
 .rodata        0x00f2c430      0x100 ../lab5_bsp/\libucosii_bsp.a(os_core.o)
                0x00f2c430                OSUnMapTbl
 .rodata.str1.4
                0x00000000       0x10 ../lab5_bsp/\libucosii_bsp.a(alt_sys_init.o)
 .rodata.str1.4
                0x00000000        0x4 ../lab5_bsp/\libucosii_bsp.a(os_cpu_c.o)
 *(.rodata1)
                0x00f2c530                . = ALIGN (0x4)
                0x00f2c530                PROVIDE (__ram_rodata_end, ABSOLUTE (.))
                0x00d95134                PROVIDE (__flash_rodata_start, LOADADDR (.rodata))

.rwdata         0x00f2c530     0x3688 load address 0x00f2fbb8
                0x00f2c530                PROVIDE (__ram_rwdata_start, ABSOLUTE (.))
                0x00f2c530                . = ALIGN (0x4)
 *(.got.plt)
 *(.got)
 *(.data1)
 *(.data .data.* .gnu.linkonce.d.*)
 .data          0x00f2c530        0x0 ../lab5_bsp//obj/HAL/src/crt0.o
 .data          0x00f2c530        0x0 obj/default/drivers/drivers.o
 .data          0x00f2c530      0xbc0 obj/default/fonts/tahomabold_20.o
                0x00f2c530                tahomabold_20
 .data          0x00f2d0f0      0xbc0 obj/default/fonts/tahomabold_32.o
                0x00f2d0f0                tahomabold_32
 .data          0x00f2dcb0        0x0 obj/default/frame.o
 .data          0x00f2dcb0        0x0 obj/default/graphic_lib/draw_gimps.o
 .data          0x00f2dcb0        0x0 obj/default/graphic_lib/gimp_bmp.o
 .data          0x00f2dcb0      0x415 obj/default/graphic_lib/simple_graphics.o
                0x00f2dcb0                cour10_font_array
 .data          0x00f2e0c5        0x0 obj/default/graphic_lib/simple_text.o
 .data          0x00f2e0c5        0x0 obj/default/hello_ucosii.o
 .data          0x00f2e0c5        0x0 obj/default/imagenes/back_down.o
 .data          0x00f2e0c5        0x0 obj/default/imagenes/back_up.o
 .data          0x00f2e0c5        0x0 obj/default/imagenes/ford_down.o
 .data          0x00f2e0c5        0x0 obj/default/imagenes/ford_up.o
 .data          0x00f2e0c5        0x0 obj/default/imagenes/pause_down.o
 .data          0x00f2e0c5        0x0 obj/default/imagenes/pause_up.o
 .data          0x00f2e0c5        0x0 obj/default/imagenes/play_down.o
 .data          0x00f2e0c5        0x0 obj/default/imagenes/play_up.o
 .data          0x00f2e0c5        0x0 obj/default/imagenes/stop_down.o
 .data          0x00f2e0c5        0x0 obj/default/imagenes/stop_up.o
 .data          0x00f2e0c5        0x0 obj/default/song/song.o
 .data          0x00f2e0c5        0x0 obj/default/student_code/student_code.o
 .data          0x00f2e0c5        0x0 obj/default/vip_fr.o
 .data          0x00f2e0c5        0x0 c:/altera/13.0sp1/nios2eds/bin/gnu/h-i686-mingw32/bin/../lib/gcc/nios2-elf/4.1.2\libgcc.a(_sf_to_si.o)
 .data          0x00f2e0c5        0x0 c:/altera/13.0sp1/nios2eds/bin/gnu/h-i686-mingw32/bin/../lib/gcc/nios2-elf/4.1.2\libgcc.a(lib2-divmod.o)
 .data          0x00f2e0c5        0x0 c:/altera/13.0sp1/nios2eds/bin/gnu/h-i686-mingw32/bin/../lib/gcc/nios2-elf/4.1.2\libgcc.a(_unpack_sf.o)
 .data          0x00f2e0c5        0x0 c:/altera/13.0sp1/nios2eds/bin/gnu/h-i686-mingw32/bin/../lib/gcc/nios2-elf/4.1.2/../../../../nios2-elf/lib\libc.a(lib_a-malloc.o)
 *fill*         0x00f2e0c5        0x3 00
 .data          0x00f2e0c8      0x408 c:/altera/13.0sp1/nios2eds/bin/gnu/h-i686-mingw32/bin/../lib/gcc/nios2-elf/4.1.2/../../../../nios2-elf/lib\libc.a(lib_a-mallocr.o)
                0x00f2e0c8                __malloc_av_
 .data          0x00f2e4d0        0x0 c:/altera/13.0sp1/nios2eds/bin/gnu/h-i686-mingw32/bin/../lib/gcc/nios2-elf/4.1.2/../../../../nios2-elf/lib\libc.a(lib_a-memcpy.o)
 .data          0x00f2e4d0        0x0 c:/altera/13.0sp1/nios2eds/bin/gnu/h-i686-mingw32/bin/../lib/gcc/nios2-elf/4.1.2/../../../../nios2-elf/lib\libc.a(lib_a-memset.o)
 .data          0x00f2e4d0        0x0 c:/altera/13.0sp1/nios2eds/bin/gnu/h-i686-mingw32/bin/../lib/gcc/nios2-elf/4.1.2/../../../../nios2-elf/lib\libc.a(lib_a-printf.o)
 .data          0x00f2e4d0        0x0 c:/altera/13.0sp1/nios2eds/bin/gnu/h-i686-mingw32/bin/../lib/gcc/nios2-elf/4.1.2/../../../../nios2-elf/lib\libc.a(lib_a-sbrkr.o)
 .data          0x00f2e4d0        0x0 c:/altera/13.0sp1/nios2eds/bin/gnu/h-i686-mingw32/bin/../lib/gcc/nios2-elf/4.1.2/../../../../nios2-elf/lib\libc.a(lib_a-strcpy.o)
 .data          0x00f2e4d0        0x0 c:/altera/13.0sp1/nios2eds/bin/gnu/h-i686-mingw32/bin/../lib/gcc/nios2-elf/4.1.2/../../../../nios2-elf/lib\libc.a(lib_a-strlen.o)
 .data          0x00f2e4d0        0x0 c:/altera/13.0sp1/nios2eds/bin/gnu/h-i686-mingw32/bin/../lib/gcc/nios2-elf/4.1.2/../../../../nios2-elf/lib\libc.a(lib_a-vfprintf.o)
 .data          0x00f2e4d0        0x0 c:/altera/13.0sp1/nios2eds/bin/gnu/h-i686-mingw32/bin/../lib/gcc/nios2-elf/4.1.2/../../../../nios2-elf/lib\libc.a(lib_a-wsetup.o)
 .data          0x00f2e4d0        0x0 c:/altera/13.0sp1/nios2eds/bin/gnu/h-i686-mingw32/bin/../lib/gcc/nios2-elf/4.1.2/../../../../nios2-elf/lib\libc.a(lib_a-dtoa.o)
 .data          0x00f2e4d0        0x0 c:/altera/13.0sp1/nios2eds/bin/gnu/h-i686-mingw32/bin/../lib/gcc/nios2-elf/4.1.2/../../../../nios2-elf/lib\libc.a(lib_a-fflush.o)
 .data          0x00f2e4d0        0x0 c:/altera/13.0sp1/nios2eds/bin/gnu/h-i686-mingw32/bin/../lib/gcc/nios2-elf/4.1.2/../../../../nios2-elf/lib\libc.a(lib_a-findfp.o)
 .data          0x00f2e4d0        0x0 c:/altera/13.0sp1/nios2eds/bin/gnu/h-i686-mingw32/bin/../lib/gcc/nios2-elf/4.1.2/../../../../nios2-elf/lib\libc.a(lib_a-freer.o)
 .data          0x00f2e4d0        0x0 c:/altera/13.0sp1/nios2eds/bin/gnu/h-i686-mingw32/bin/../lib/gcc/nios2-elf/4.1.2/../../../../nios2-elf/lib\libc.a(lib_a-fvwrite.o)
 .data          0x00f2e4d0        0x0 c:/altera/13.0sp1/nios2eds/bin/gnu/h-i686-mingw32/bin/../lib/gcc/nios2-elf/4.1.2/../../../../nios2-elf/lib\libc.a(lib_a-fwalk.o)
 .data          0x00f2e4d0      0x400 c:/altera/13.0sp1/nios2eds/bin/gnu/h-i686-mingw32/bin/../lib/gcc/nios2-elf/4.1.2/../../../../nios2-elf/lib\libc.a(lib_a-impure.o)
 .data          0x00f2e8d0        0x0 c:/altera/13.0sp1/nios2eds/bin/gnu/h-i686-mingw32/bin/../lib/gcc/nios2-elf/4.1.2/../../../../nios2-elf/lib\libc.a(lib_a-int_errno.o)
 .data          0x00f2e8d0        0xc c:/altera/13.0sp1/nios2eds/bin/gnu/h-i686-mingw32/bin/../lib/gcc/nios2-elf/4.1.2/../../../../nios2-elf/lib\libc.a(lib_a-locale.o)
                0x00f2e8d0                __lc_ctype
 .data          0x00f2e8dc        0x0 c:/altera/13.0sp1/nios2eds/bin/gnu/h-i686-mingw32/bin/../lib/gcc/nios2-elf/4.1.2/../../../../nios2-elf/lib\libc.a(lib_a-makebuf.o)
 .data          0x00f2e8dc        0x0 c:/altera/13.0sp1/nios2eds/bin/gnu/h-i686-mingw32/bin/../lib/gcc/nios2-elf/4.1.2/../../../../nios2-elf/lib\libc.a(lib_a-memchr.o)
 .data          0x00f2e8dc        0x0 c:/altera/13.0sp1/nios2eds/bin/gnu/h-i686-mingw32/bin/../lib/gcc/nios2-elf/4.1.2/../../../../nios2-elf/lib\libc.a(lib_a-memmove.o)
 .data          0x00f2e8dc        0x0 c:/altera/13.0sp1/nios2eds/bin/gnu/h-i686-mingw32/bin/../lib/gcc/nios2-elf/4.1.2/../../../../nios2-elf/lib\libc.a(lib_a-mprec.o)
 .data          0x00f2e8dc        0x0 c:/altera/13.0sp1/nios2eds/bin/gnu/h-i686-mingw32/bin/../lib/gcc/nios2-elf/4.1.2/../../../../nios2-elf/lib\libc.a(lib_a-reallocr.o)
 .data          0x00f2e8dc        0x0 c:/altera/13.0sp1/nios2eds/bin/gnu/h-i686-mingw32/bin/../lib/gcc/nios2-elf/4.1.2/../../../../nios2-elf/lib\libc.a(lib_a-s_isinfd.o)
 .data          0x00f2e8dc        0x0 c:/altera/13.0sp1/nios2eds/bin/gnu/h-i686-mingw32/bin/../lib/gcc/nios2-elf/4.1.2/../../../../nios2-elf/lib\libc.a(lib_a-s_isnand.o)
 .data          0x00f2e8dc        0x0 c:/altera/13.0sp1/nios2eds/bin/gnu/h-i686-mingw32/bin/../lib/gcc/nios2-elf/4.1.2/../../../../nios2-elf/lib\libc.a(lib_a-stdio.o)
 .data          0x00f2e8dc        0x0 c:/altera/13.0sp1/nios2eds/bin/gnu/h-i686-mingw32/bin/../lib/gcc/nios2-elf/4.1.2/../../../../nios2-elf/lib\libc.a(lib_a-strcmp.o)
 .data          0x00f2e8dc        0x0 c:/altera/13.0sp1/nios2eds/bin/gnu/h-i686-mingw32/bin/../lib/gcc/nios2-elf/4.1.2/../../../../nios2-elf/lib\libc.a(lib_a-writer.o)
 .data          0x00f2e8dc        0x0 c:/altera/13.0sp1/nios2eds/bin/gnu/h-i686-mingw32/bin/../lib/gcc/nios2-elf/4.1.2/../../../../nios2-elf/lib\libc.a(lib_a-callocr.o)
 .data          0x00f2e8dc        0x0 c:/altera/13.0sp1/nios2eds/bin/gnu/h-i686-mingw32/bin/../lib/gcc/nios2-elf/4.1.2/../../../../nios2-elf/lib\libc.a(lib_a-closer.o)
 .data          0x00f2e8dc        0x0 c:/altera/13.0sp1/nios2eds/bin/gnu/h-i686-mingw32/bin/../lib/gcc/nios2-elf/4.1.2/../../../../nios2-elf/lib\libc.a(lib_a-fclose.o)
 .data          0x00f2e8dc        0x0 c:/altera/13.0sp1/nios2eds/bin/gnu/h-i686-mingw32/bin/../lib/gcc/nios2-elf/4.1.2/../../../../nios2-elf/lib\libc.a(lib_a-fstatr.o)
 .data          0x00f2e8dc        0x0 c:/altera/13.0sp1/nios2eds/bin/gnu/h-i686-mingw32/bin/../lib/gcc/nios2-elf/4.1.2/../../../../nios2-elf/lib\libc.a(lib_a-isattyr.o)
 .data          0x00f2e8dc        0x0 c:/altera/13.0sp1/nios2eds/bin/gnu/h-i686-mingw32/bin/../lib/gcc/nios2-elf/4.1.2/../../../../nios2-elf/lib\libc.a(lib_a-lseekr.o)
 .data          0x00f2e8dc        0x0 c:/altera/13.0sp1/nios2eds/bin/gnu/h-i686-mingw32/bin/../lib/gcc/nios2-elf/4.1.2/../../../../nios2-elf/lib\libc.a(lib_a-readr.o)
 .data          0x00f2e8dc        0x0 c:/altera/13.0sp1/nios2eds/bin/gnu/h-i686-mingw32/bin/../lib/gcc/nios2-elf/4.1.2\libgcc.a(_udivdi3.o)
 .data          0x00f2e8dc        0x0 c:/altera/13.0sp1/nios2eds/bin/gnu/h-i686-mingw32/bin/../lib/gcc/nios2-elf/4.1.2\libgcc.a(_umoddi3.o)
 .data          0x00f2e8dc        0x0 c:/altera/13.0sp1/nios2eds/bin/gnu/h-i686-mingw32/bin/../lib/gcc/nios2-elf/4.1.2\libgcc.a(_addsub_df.o)
 .data          0x00f2e8dc        0x0 c:/altera/13.0sp1/nios2eds/bin/gnu/h-i686-mingw32/bin/../lib/gcc/nios2-elf/4.1.2\libgcc.a(_mul_df.o)
 .data          0x00f2e8dc        0x0 c:/altera/13.0sp1/nios2eds/bin/gnu/h-i686-mingw32/bin/../lib/gcc/nios2-elf/4.1.2\libgcc.a(_div_df.o)
 .data          0x00f2e8dc        0x0 c:/altera/13.0sp1/nios2eds/bin/gnu/h-i686-mingw32/bin/../lib/gcc/nios2-elf/4.1.2\libgcc.a(_eq_df.o)
 .data          0x00f2e8dc        0x0 c:/altera/13.0sp1/nios2eds/bin/gnu/h-i686-mingw32/bin/../lib/gcc/nios2-elf/4.1.2\libgcc.a(_ne_df.o)
 .data          0x00f2e8dc        0x0 c:/altera/13.0sp1/nios2eds/bin/gnu/h-i686-mingw32/bin/../lib/gcc/nios2-elf/4.1.2\libgcc.a(_gt_df.o)
 .data          0x00f2e8dc        0x0 c:/altera/13.0sp1/nios2eds/bin/gnu/h-i686-mingw32/bin/../lib/gcc/nios2-elf/4.1.2\libgcc.a(_ge_df.o)
 .data          0x00f2e8dc        0x0 c:/altera/13.0sp1/nios2eds/bin/gnu/h-i686-mingw32/bin/../lib/gcc/nios2-elf/4.1.2\libgcc.a(_lt_df.o)
 .data          0x00f2e8dc        0x0 c:/altera/13.0sp1/nios2eds/bin/gnu/h-i686-mingw32/bin/../lib/gcc/nios2-elf/4.1.2\libgcc.a(_si_to_df.o)
 .data          0x00f2e8dc        0x0 c:/altera/13.0sp1/nios2eds/bin/gnu/h-i686-mingw32/bin/../lib/gcc/nios2-elf/4.1.2\libgcc.a(_df_to_si.o)
 .data          0x00f2e8dc        0x0 c:/altera/13.0sp1/nios2eds/bin/gnu/h-i686-mingw32/bin/../lib/gcc/nios2-elf/4.1.2\libgcc.a(_thenan_df.o)
 .data          0x00f2e8dc        0x0 c:/altera/13.0sp1/nios2eds/bin/gnu/h-i686-mingw32/bin/../lib/gcc/nios2-elf/4.1.2\libgcc.a(_usi_to_df.o)
 .data          0x00f2e8dc        0x0 c:/altera/13.0sp1/nios2eds/bin/gnu/h-i686-mingw32/bin/../lib/gcc/nios2-elf/4.1.2\libgcc.a(_muldi3.o)
 .data          0x00f2e8dc        0x0 c:/altera/13.0sp1/nios2eds/bin/gnu/h-i686-mingw32/bin/../lib/gcc/nios2-elf/4.1.2\libgcc.a(_clz.o)
 .data          0x00f2e8dc        0x0 c:/altera/13.0sp1/nios2eds/bin/gnu/h-i686-mingw32/bin/../lib/gcc/nios2-elf/4.1.2\libgcc.a(_clzsi2.o)
 .data          0x00f2e8dc        0x0 c:/altera/13.0sp1/nios2eds/bin/gnu/h-i686-mingw32/bin/../lib/gcc/nios2-elf/4.1.2\libgcc.a(_pack_df.o)
 .data          0x00f2e8dc        0x0 c:/altera/13.0sp1/nios2eds/bin/gnu/h-i686-mingw32/bin/../lib/gcc/nios2-elf/4.1.2\libgcc.a(_unpack_df.o)
 .data          0x00f2e8dc        0x0 c:/altera/13.0sp1/nios2eds/bin/gnu/h-i686-mingw32/bin/../lib/gcc/nios2-elf/4.1.2\libgcc.a(_fpcmp_parts_df.o)
 .data          0x00f2e8dc        0x0 ../lab5_bsp/\libucosii_bsp.a(alt_close.o)
 .data          0x00f2e8dc        0x0 ../lab5_bsp/\libucosii_bsp.a(alt_dcache_flush_all.o)
 .data          0x00f2e8dc      0x1a8 ../lab5_bsp/\libucosii_bsp.a(alt_dev.o)
                0x00f2e8dc                alt_dev_null
                0x00f2e904                alt_fd_list
 .data          0x00f2ea84        0x0 ../lab5_bsp/\libucosii_bsp.a(alt_errno.o)
 .data          0x00f2ea84        0x0 ../lab5_bsp/\libucosii_bsp.a(alt_fstat.o)
 .data          0x00f2ea84        0x0 ../lab5_bsp/\libucosii_bsp.a(alt_iic.o)
 .data          0x00f2ea84        0x0 ../lab5_bsp/\libucosii_bsp.a(alt_iic_isr_register.o)
 .data          0x00f2ea84        0x0 ../lab5_bsp/\libucosii_bsp.a(alt_irq_entry.o)
 .data          0x00f2ea84        0x0 ../lab5_bsp/\libucosii_bsp.a(alt_irq_handler.o)
 .data          0x00f2ea84        0x0 ../lab5_bsp/\libucosii_bsp.a(alt_irq_vars.o)
 .data          0x00f2ea84        0x0 ../lab5_bsp/\libucosii_bsp.a(alt_isatty.o)
 .data          0x00f2ea84        0x0 ../lab5_bsp/\libucosii_bsp.a(alt_load.o)
 .data          0x00f2ea84        0x0 ../lab5_bsp/\libucosii_bsp.a(alt_lseek.o)
 .data          0x00f2ea84        0x0 ../lab5_bsp/\libucosii_bsp.a(alt_main.o)
 .data          0x00f2ea84        0x0 ../lab5_bsp/\libucosii_bsp.a(alt_read.o)
 .data          0x00f2ea84        0x0 ../lab5_bsp/\libucosii_bsp.a(alt_release_fd.o)
 .data          0x00f2ea84        0x0 ../lab5_bsp/\libucosii_bsp.a(alt_sbrk.o)
 .data          0x00f2ea84        0x0 ../lab5_bsp/\libucosii_bsp.a(alt_tick.o)
 .data          0x00f2ea84        0x0 ../lab5_bsp/\libucosii_bsp.a(alt_write.o)
 .data          0x00f2ea84        0x0 ../lab5_bsp/\libucosii_bsp.a(alt_env_lock.o)
 .data          0x00f2ea84        0x0 ../lab5_bsp/\libucosii_bsp.a(alt_malloc_lock.o)
 .data          0x00f2ea84        0x0 ../lab5_bsp/\libucosii_bsp.a(os_core.o)
 .data          0x00f2ea84        0x0 ../lab5_bsp/\libucosii_bsp.a(os_dbg.o)
 .data          0x00f2ea84        0x0 ../lab5_bsp/\libucosii_bsp.a(os_flag.o)
 .data          0x00f2ea84        0x0 ../lab5_bsp/\libucosii_bsp.a(os_mem.o)
 .data          0x00f2ea84        0x0 ../lab5_bsp/\libucosii_bsp.a(os_q.o)
 .data          0x00f2ea84        0x0 ../lab5_bsp/\libucosii_bsp.a(os_sem.o)
 .data          0x00f2ea84        0x0 ../lab5_bsp/\libucosii_bsp.a(os_task.o)
 .data          0x00f2ea84        0x0 ../lab5_bsp/\libucosii_bsp.a(os_time.o)
 .data          0x00f2ea84     0x106c ../lab5_bsp/\libucosii_bsp.a(alt_sys_init.o)
 .data          0x00f2faf0        0x0 ../lab5_bsp/\libucosii_bsp.a(altera_avalon_jtag_uart_fd.o)
 .data          0x00f2faf0        0x0 ../lab5_bsp/\libucosii_bsp.a(altera_avalon_jtag_uart_init.o)
 .data          0x00f2faf0        0x0 ../lab5_bsp/\libucosii_bsp.a(altera_avalon_jtag_uart_ioctl.o)
 .data          0x00f2faf0        0x0 ../lab5_bsp/\libucosii_bsp.a(altera_avalon_jtag_uart_read.o)
 .data          0x00f2faf0        0x0 ../lab5_bsp/\libucosii_bsp.a(altera_avalon_jtag_uart_write.o)
 .data          0x00f2faf0        0x0 ../lab5_bsp/\libucosii_bsp.a(altera_avalon_timer_sc.o)
 .data          0x00f2faf0        0x0 ../lab5_bsp/\libucosii_bsp.a(alt_alarm_start.o)
 .data          0x00f2faf0        0x0 ../lab5_bsp/\libucosii_bsp.a(alt_dev_llist_insert.o)
 .data          0x00f2faf0        0x0 ../lab5_bsp/\libucosii_bsp.a(alt_do_ctors.o)
 .data          0x00f2faf0        0x0 ../lab5_bsp/\libucosii_bsp.a(alt_do_dtors.o)
 .data          0x00f2faf0        0x0 ../lab5_bsp/\libucosii_bsp.a(alt_exception_entry.o)
 .data          0x00f2faf0        0x0 ../lab5_bsp/\libucosii_bsp.a(alt_icache_flush_all.o)
 .data          0x00f2faf0        0x0 ../lab5_bsp/\libucosii_bsp.a(alt_io_redirect.o)
 .data          0x00f2faf0        0x0 ../lab5_bsp/\libucosii_bsp.a(alt_open.o)
 .data          0x00f2faf0        0x0 ../lab5_bsp/\libucosii_bsp.a(altera_nios2_qsys_irq.o)
 .data          0x00f2faf0        0x0 ../lab5_bsp/\libucosii_bsp.a(os_cpu_a.o)
 .data          0x00f2faf0        0x0 ../lab5_bsp/\libucosii_bsp.a(os_cpu_c.o)
 .data          0x00f2faf0        0x0 ../lab5_bsp/\libucosii_bsp.a(alt_find_dev.o)
 .data          0x00f2faf0        0x0 ../lab5_bsp/\libucosii_bsp.a(alt_find_file.o)
 .data          0x00f2faf0        0x0 ../lab5_bsp/\libucosii_bsp.a(alt_get_fd.o)
 .data          0x00f2faf0        0x0 ../lab5_bsp/\libucosii_bsp.a(alt_icache_flush.o)
 .data          0x00f2faf0        0x0 c:/altera/13.0sp1/nios2eds/bin/gnu/h-i686-mingw32/bin/../lib/gcc/nios2-elf/4.1.2/../../../../nios2-elf/lib\libc.a(lib_a-atexit.o)
 .data          0x00f2faf0        0x0 c:/altera/13.0sp1/nios2eds/bin/gnu/h-i686-mingw32/bin/../lib/gcc/nios2-elf/4.1.2/../../../../nios2-elf/lib\libc.a(lib_a-exit.o)
 .data          0x00f2faf0        0x0 c:/altera/13.0sp1/nios2eds/bin/gnu/h-i686-mingw32/bin/../lib/gcc/nios2-elf/4.1.2/../../../../nios2-elf/lib\libc.a(lib_a-memcmp.o)
 .data          0x00f2faf0        0x0 c:/altera/13.0sp1/nios2eds/bin/gnu/h-i686-mingw32/bin/../lib/gcc/nios2-elf/4.1.2/../../../../nios2-elf/lib\libc.a(lib_a-__atexit.o)
 .data          0x00f2faf0        0x0 c:/altera/13.0sp1/nios2eds/bin/gnu/h-i686-mingw32/bin/../lib/gcc/nios2-elf/4.1.2/../../../../nios2-elf/lib\libc.a(lib_a-__call_atexit.o)
 .data          0x00f2faf0        0x0 c:/altera/13.0sp1/nios2eds/bin/gnu/h-i686-mingw32/bin/../lib/gcc/nios2-elf/4.1.2\libgcc.a(_fixunsdfsi.o)
 .data          0x00f2faf0        0x0 ../lab5_bsp/\libucosii_bsp.a(alt_exit.o)
                0x00f37af0                _gp = ABSOLUTE ((. + 0x8000))
                0x00f37af0                PROVIDE (gp, _gp)
 *(.rwdata .rwdata.*)
 *(.sdata .sdata.* .gnu.linkonce.s.*)
 .sdata         0x00f2faf0        0x4 obj/default/graphic_lib/simple_graphics.o
                0x00f2faf0                cour10_font
 .sdata         0x00f2faf4        0x4 obj/default/hello_ucosii.o
                0x00f2faf4                freq_reader
 .sdata         0x00f2faf8        0x4 obj/default/song/song.o
                0x00f2faf8                size_song
 .sdata         0x00f2fafc        0x8 c:/altera/13.0sp1/nios2eds/bin/gnu/h-i686-mingw32/bin/../lib/gcc/nios2-elf/4.1.2/../../../../nios2-elf/lib\libc.a(lib_a-mallocr.o)
                0x00f2fafc                __malloc_trim_threshold
                0x00f2fb00                __malloc_sbrk_base
 .sdata         0x00f2fb04        0x8 c:/altera/13.0sp1/nios2eds/bin/gnu/h-i686-mingw32/bin/../lib/gcc/nios2-elf/4.1.2/../../../../nios2-elf/lib\libc.a(lib_a-impure.o)
                0x00f2fb04                _impure_ptr
                0x00f2fb08                _global_impure_ptr
 .sdata         0x00f2fb0c        0x8 c:/altera/13.0sp1/nios2eds/bin/gnu/h-i686-mingw32/bin/../lib/gcc/nios2-elf/4.1.2/../../../../nios2-elf/lib\libc.a(lib_a-locale.o)
                0x00f2fb0c                __mb_cur_max
 .sdata         0x00f2fb14       0x14 ../lab5_bsp/\libucosii_bsp.a(alt_dev.o)
                0x00f2fb14                alt_fs_list
                0x00f2fb1c                alt_dev_list
                0x00f2fb24                alt_max_fd
 .sdata         0x00f2fb28        0x4 ../lab5_bsp/\libucosii_bsp.a(alt_errno.o)
                0x00f2fb28                alt_errno
 .sdata         0x00f2fb2c        0x4 ../lab5_bsp/\libucosii_bsp.a(alt_irq_vars.o)
                0x00f2fb2c                alt_priority_mask
 .sdata         0x00f2fb30        0x4 ../lab5_bsp/\libucosii_bsp.a(alt_sbrk.o)
 .sdata         0x00f2fb34        0x8 ../lab5_bsp/\libucosii_bsp.a(alt_tick.o)
                0x00f2fb34                alt_alarm_list
 .sdata         0x00f2fb3c        0x4 ../lab5_bsp/\libucosii_bsp.a(alt_env_lock.o)
 .sdata         0x00f2fb40        0x4 ../lab5_bsp/\libucosii_bsp.a(alt_malloc_lock.o)
 .sdata         0x00f2fb44       0x74 ../lab5_bsp/\libucosii_bsp.a(os_dbg.o)
                0x00f2fb44                OSDebugEn
                0x00f2fb48                OSEndiannessTest
                0x00f2fb4c                OSEventEn
                0x00f2fb4e                OSEventMax
                0x00f2fb50                OSEventNameSize
                0x00f2fb52                OSEventSize
                0x00f2fb54                OSEventTblSize
                0x00f2fb56                OSEventMultiEn
                0x00f2fb58                OSFlagEn
                0x00f2fb5a                OSFlagGrpSize
                0x00f2fb5c                OSFlagNodeSize
                0x00f2fb5e                OSFlagWidth
                0x00f2fb60                OSFlagMax
                0x00f2fb62                OSFlagNameSize
                0x00f2fb64                OSLowestPrio
                0x00f2fb66                OSMboxEn
                0x00f2fb68                OSMemEn
                0x00f2fb6a                OSMemMax
                0x00f2fb6c                OSMemNameSize
                0x00f2fb6e                OSMemSize
                0x00f2fb70                OSMemTblSize
                0x00f2fb72                OSMutexEn
                0x00f2fb74                OSPtrSize
                0x00f2fb76                OSQEn
                0x00f2fb78                OSQMax
                0x00f2fb7a                OSQSize
                0x00f2fb7c                OSRdyTblSize
                0x00f2fb7e                OSSemEn
                0x00f2fb80                OSStkWidth
                0x00f2fb82                OSTaskCreateEn
                0x00f2fb84                OSTaskCreateExtEn
                0x00f2fb86                OSTaskDelEn
                0x00f2fb88                OSTaskIdleStkSize
                0x00f2fb8a                OSTaskProfileEn
                0x00f2fb8c                OSTaskMax
                0x00f2fb8e                OSTaskNameSize
                0x00f2fb90                OSTaskStatEn
                0x00f2fb92                OSTaskStatStkSize
                0x00f2fb94                OSTaskStatStkChkEn
                0x00f2fb96                OSTaskSwHookEn
                0x00f2fb98                OSTCBPrioTblMax
                0x00f2fb9a                OSTCBSize
                0x00f2fb9c                OSTicksPerSec
                0x00f2fb9e                OSTimeTickHookEn
                0x00f2fba0                OSVersionNbr
                0x00f2fba2                OSTmrEn
                0x00f2fba4                OSTmrCfgMax
                0x00f2fba6                OSTmrCfgNameSize
                0x00f2fba8                OSTmrCfgWheelSize
                0x00f2fbaa                OSTmrCfgTicksPerSec
                0x00f2fbac                OSTmrSize
                0x00f2fbae                OSTmrTblSize
                0x00f2fbb0                OSTmrWheelSize
                0x00f2fbb2                OSTmrWheelTblSize
                0x00f2fbb4                OSDataSize
 *(.sdata2 .sdata2.* .gnu.linkonce.s2.*)
                0x00f2fbb8                . = ALIGN (0x4)
                0x00f2fbb8                _edata = ABSOLUTE (.)
                0x00f2fbb8                PROVIDE (edata, ABSOLUTE (.))
                0x00f2fbb8                PROVIDE (__ram_rwdata_end, ABSOLUTE (.))
                0x00f2fbb8                PROVIDE (__flash_rwdata_start, LOADADDR (.rwdata))

.bss            0x00f33240     0xf598
                0x00f33240                __bss_start = ABSOLUTE (.)
                0x00f33240                PROVIDE (__sbss_start, ABSOLUTE (.))
                0x00f33240                PROVIDE (___sbss_start, ABSOLUTE (.))
 *(.dynsbss)
 *(.sbss .sbss.* .gnu.linkonce.sb.*)
 .sbss          0x00f33240        0x2 obj/default/drivers/drivers.o
 .sbss          0x00f33242        0x3 obj/default/hello_ucosii.o
                0x00f33242                play_song
                0x00f33243                pause_song
                0x00f33244                stop_song
 *fill*         0x00f33245        0x3 00
 .sbss          0x00f33248        0x4 obj/default/hello_ucosii.o
                0x00f33248                SW_Frame
 .sbss          0x00f3324c        0xc c:/altera/13.0sp1/nios2eds/bin/gnu/h-i686-mingw32/bin/../lib/gcc/nios2-elf/4.1.2/../../../../nios2-elf/lib\libc.a(lib_a-mallocr.o)
                0x00f3324c                __malloc_top_pad
                0x00f33250                __malloc_max_sbrked_mem
                0x00f33254                __malloc_max_total_mem
 .sbss          0x00f33258        0x4 c:/altera/13.0sp1/nios2eds/bin/gnu/h-i686-mingw32/bin/../lib/gcc/nios2-elf/4.1.2/../../../../nios2-elf/lib\libc.a(lib_a-int_errno.o)
                0x00f33258                errno
 .sbss          0x00f3325c        0xc c:/altera/13.0sp1/nios2eds/bin/gnu/h-i686-mingw32/bin/../lib/gcc/nios2-elf/4.1.2/../../../../nios2-elf/lib\libc.a(lib_a-locale.o)
                0x00f3325c                __nlocale_changed
                0x00f33260                __mlocale_changed
                0x00f33264                _PathLocale
 .sbss          0x00f33268        0x4 ../lab5_bsp/\libucosii_bsp.a(alt_dev.o)
                0x00f33268                alt_fd_list_lock
 .sbss          0x00f3326c        0x4 ../lab5_bsp/\libucosii_bsp.a(alt_irq_vars.o)
                0x00f3326c                alt_irq_active
 .sbss          0x00f33270        0xc ../lab5_bsp/\libucosii_bsp.a(alt_main.o)
                0x00f33270                alt_argc
                0x00f33274                alt_argv
                0x00f33278                alt_envp
 .sbss          0x00f3327c        0x8 ../lab5_bsp/\libucosii_bsp.a(alt_tick.o)
                0x00f3327c                _alt_tick_rate
                0x00f33280                _alt_nticks
 .sbss          0x00f33284        0x8 ../lab5_bsp/\libucosii_bsp.a(alt_env_lock.o)
                0x00f33288                alt_envsem
 .sbss          0x00f3328c        0x8 ../lab5_bsp/\libucosii_bsp.a(alt_malloc_lock.o)
                0x00f33290                alt_heapsem
 .sbss          0x00f33294       0x50 ../lab5_bsp/\libucosii_bsp.a(os_core.o)
                0x00f33294                OSLockNesting
                0x00f33295                OSRunning
                0x00f33298                OSIdleCtr
                0x00f3329c                OSPrioHighRdy
                0x00f3329d                OSPrioCur
                0x00f332a0                OSTCBList
                0x00f332a4                OSTickStepState
                0x00f332a8                OSCtxSwCtr
                0x00f332ac                OSIdleCtrMax
                0x00f332b0                OSTCBFreeList
                0x00f332b4                OSCPUUsage
                0x00f332b5                OSTaskCtr
                0x00f332b8                OSMemFreeList
                0x00f332bc                OSTCBHighRdy
                0x00f332c0                OSQFreeList
                0x00f332c4                OSRdyGrp
                0x00f332c5                OSRdyTbl
                0x00f332c8                OSEventFreeList
                0x00f332cc                OSIntNesting
                0x00f332d0                OSTCBCur
                0x00f332d4                OSTime
                0x00f332d8                OSFlagFreeList
                0x00f332dc                OSStatRdy
                0x00f332e0                OSIdleCtrRun
 *(.sbss2 .sbss2.* .gnu.linkonce.sb2.*)
 *(.scommon)
                0x00f332e4                PROVIDE (__sbss_end, ABSOLUTE (.))
                0x00f332e4                PROVIDE (___sbss_end, ABSOLUTE (.))
 *(.dynbss)
 *(.bss .bss.* .gnu.linkonce.b.*)
 .bss           0x00f332e4        0x0 ../lab5_bsp//obj/HAL/src/crt0.o
 .bss           0x00f332e4        0x0 obj/default/drivers/drivers.o
 .bss           0x00f332e4        0x0 obj/default/fonts/tahomabold_20.o
 .bss           0x00f332e4        0x0 obj/default/fonts/tahomabold_32.o
 .bss           0x00f332e4        0x0 obj/default/frame.o
 .bss           0x00f332e4        0x0 obj/default/graphic_lib/draw_gimps.o
 .bss           0x00f332e4        0x0 obj/default/graphic_lib/gimp_bmp.o
 .bss           0x00f332e4        0x0 obj/default/graphic_lib/simple_graphics.o
 .bss           0x00f332e4        0x0 obj/default/graphic_lib/simple_text.o
 .bss           0x00f332e4        0x0 obj/default/hello_ucosii.o
 .bss           0x00f332e4        0x0 obj/default/imagenes/back_down.o
 .bss           0x00f332e4        0x0 obj/default/imagenes/back_up.o
 .bss           0x00f332e4        0x0 obj/default/imagenes/ford_down.o
 .bss           0x00f332e4        0x0 obj/default/imagenes/ford_up.o
 .bss           0x00f332e4        0x0 obj/default/imagenes/pause_down.o
 .bss           0x00f332e4        0x0 obj/default/imagenes/pause_up.o
 .bss           0x00f332e4        0x0 obj/default/imagenes/play_down.o
 .bss           0x00f332e4        0x0 obj/default/imagenes/play_up.o
 .bss           0x00f332e4        0x0 obj/default/imagenes/stop_down.o
 .bss           0x00f332e4        0x0 obj/default/imagenes/stop_up.o
 .bss           0x00f332e4        0x0 obj/default/song/song.o
 .bss           0x00f332e4        0x0 obj/default/student_code/student_code.o
 .bss           0x00f332e4        0x0 obj/default/vip_fr.o
 .bss           0x00f332e4        0x0 c:/altera/13.0sp1/nios2eds/bin/gnu/h-i686-mingw32/bin/../lib/gcc/nios2-elf/4.1.2\libgcc.a(_sf_to_si.o)
 .bss           0x00f332e4        0x0 c:/altera/13.0sp1/nios2eds/bin/gnu/h-i686-mingw32/bin/../lib/gcc/nios2-elf/4.1.2\libgcc.a(lib2-divmod.o)
 .bss           0x00f332e4        0x0 c:/altera/13.0sp1/nios2eds/bin/gnu/h-i686-mingw32/bin/../lib/gcc/nios2-elf/4.1.2\libgcc.a(_unpack_sf.o)
 .bss           0x00f332e4        0x0 c:/altera/13.0sp1/nios2eds/bin/gnu/h-i686-mingw32/bin/../lib/gcc/nios2-elf/4.1.2/../../../../nios2-elf/lib\libc.a(lib_a-malloc.o)
 .bss           0x00f332e4       0x28 c:/altera/13.0sp1/nios2eds/bin/gnu/h-i686-mingw32/bin/../lib/gcc/nios2-elf/4.1.2/../../../../nios2-elf/lib\libc.a(lib_a-mallocr.o)
                0x00f332e4                __malloc_current_mallinfo
 .bss           0x00f3330c        0x0 c:/altera/13.0sp1/nios2eds/bin/gnu/h-i686-mingw32/bin/../lib/gcc/nios2-elf/4.1.2/../../../../nios2-elf/lib\libc.a(lib_a-memcpy.o)
 .bss           0x00f3330c        0x0 c:/altera/13.0sp1/nios2eds/bin/gnu/h-i686-mingw32/bin/../lib/gcc/nios2-elf/4.1.2/../../../../nios2-elf/lib\libc.a(lib_a-memset.o)
 .bss           0x00f3330c        0x0 c:/altera/13.0sp1/nios2eds/bin/gnu/h-i686-mingw32/bin/../lib/gcc/nios2-elf/4.1.2/../../../../nios2-elf/lib\libc.a(lib_a-printf.o)
 .bss           0x00f3330c        0x0 c:/altera/13.0sp1/nios2eds/bin/gnu/h-i686-mingw32/bin/../lib/gcc/nios2-elf/4.1.2/../../../../nios2-elf/lib\libc.a(lib_a-sbrkr.o)
 .bss           0x00f3330c        0x0 c:/altera/13.0sp1/nios2eds/bin/gnu/h-i686-mingw32/bin/../lib/gcc/nios2-elf/4.1.2/../../../../nios2-elf/lib\libc.a(lib_a-strcpy.o)
 .bss           0x00f3330c        0x0 c:/altera/13.0sp1/nios2eds/bin/gnu/h-i686-mingw32/bin/../lib/gcc/nios2-elf/4.1.2/../../../../nios2-elf/lib\libc.a(lib_a-strlen.o)
 .bss           0x00f3330c        0x0 c:/altera/13.0sp1/nios2eds/bin/gnu/h-i686-mingw32/bin/../lib/gcc/nios2-elf/4.1.2/../../../../nios2-elf/lib\libc.a(lib_a-vfprintf.o)
 .bss           0x00f3330c        0x0 c:/altera/13.0sp1/nios2eds/bin/gnu/h-i686-mingw32/bin/../lib/gcc/nios2-elf/4.1.2/../../../../nios2-elf/lib\libc.a(lib_a-wsetup.o)
 .bss           0x00f3330c        0x0 c:/altera/13.0sp1/nios2eds/bin/gnu/h-i686-mingw32/bin/../lib/gcc/nios2-elf/4.1.2/../../../../nios2-elf/lib\libc.a(lib_a-dtoa.o)
 .bss           0x00f3330c        0x0 c:/altera/13.0sp1/nios2eds/bin/gnu/h-i686-mingw32/bin/../lib/gcc/nios2-elf/4.1.2/../../../../nios2-elf/lib\libc.a(lib_a-fflush.o)
 .bss           0x00f3330c        0x0 c:/altera/13.0sp1/nios2eds/bin/gnu/h-i686-mingw32/bin/../lib/gcc/nios2-elf/4.1.2/../../../../nios2-elf/lib\libc.a(lib_a-findfp.o)
 .bss           0x00f3330c        0x0 c:/altera/13.0sp1/nios2eds/bin/gnu/h-i686-mingw32/bin/../lib/gcc/nios2-elf/4.1.2/../../../../nios2-elf/lib\libc.a(lib_a-freer.o)
 .bss           0x00f3330c        0x0 c:/altera/13.0sp1/nios2eds/bin/gnu/h-i686-mingw32/bin/../lib/gcc/nios2-elf/4.1.2/../../../../nios2-elf/lib\libc.a(lib_a-fvwrite.o)
 .bss           0x00f3330c        0x0 c:/altera/13.0sp1/nios2eds/bin/gnu/h-i686-mingw32/bin/../lib/gcc/nios2-elf/4.1.2/../../../../nios2-elf/lib\libc.a(lib_a-fwalk.o)
 .bss           0x00f3330c        0x0 c:/altera/13.0sp1/nios2eds/bin/gnu/h-i686-mingw32/bin/../lib/gcc/nios2-elf/4.1.2/../../../../nios2-elf/lib\libc.a(lib_a-impure.o)
 .bss           0x00f3330c        0x0 c:/altera/13.0sp1/nios2eds/bin/gnu/h-i686-mingw32/bin/../lib/gcc/nios2-elf/4.1.2/../../../../nios2-elf/lib\libc.a(lib_a-int_errno.o)
 .bss           0x00f3330c        0x0 c:/altera/13.0sp1/nios2eds/bin/gnu/h-i686-mingw32/bin/../lib/gcc/nios2-elf/4.1.2/../../../../nios2-elf/lib\libc.a(lib_a-locale.o)
 .bss           0x00f3330c        0x0 c:/altera/13.0sp1/nios2eds/bin/gnu/h-i686-mingw32/bin/../lib/gcc/nios2-elf/4.1.2/../../../../nios2-elf/lib\libc.a(lib_a-makebuf.o)
 .bss           0x00f3330c        0x0 c:/altera/13.0sp1/nios2eds/bin/gnu/h-i686-mingw32/bin/../lib/gcc/nios2-elf/4.1.2/../../../../nios2-elf/lib\libc.a(lib_a-memchr.o)
 .bss           0x00f3330c        0x0 c:/altera/13.0sp1/nios2eds/bin/gnu/h-i686-mingw32/bin/../lib/gcc/nios2-elf/4.1.2/../../../../nios2-elf/lib\libc.a(lib_a-memmove.o)
 .bss           0x00f3330c        0x0 c:/altera/13.0sp1/nios2eds/bin/gnu/h-i686-mingw32/bin/../lib/gcc/nios2-elf/4.1.2/../../../../nios2-elf/lib\libc.a(lib_a-mprec.o)
 .bss           0x00f3330c        0x0 c:/altera/13.0sp1/nios2eds/bin/gnu/h-i686-mingw32/bin/../lib/gcc/nios2-elf/4.1.2/../../../../nios2-elf/lib\libc.a(lib_a-reallocr.o)
 .bss           0x00f3330c        0x0 c:/altera/13.0sp1/nios2eds/bin/gnu/h-i686-mingw32/bin/../lib/gcc/nios2-elf/4.1.2/../../../../nios2-elf/lib\libc.a(lib_a-s_isinfd.o)
 .bss           0x00f3330c        0x0 c:/altera/13.0sp1/nios2eds/bin/gnu/h-i686-mingw32/bin/../lib/gcc/nios2-elf/4.1.2/../../../../nios2-elf/lib\libc.a(lib_a-s_isnand.o)
 .bss           0x00f3330c        0x0 c:/altera/13.0sp1/nios2eds/bin/gnu/h-i686-mingw32/bin/../lib/gcc/nios2-elf/4.1.2/../../../../nios2-elf/lib\libc.a(lib_a-stdio.o)
 .bss           0x00f3330c        0x0 c:/altera/13.0sp1/nios2eds/bin/gnu/h-i686-mingw32/bin/../lib/gcc/nios2-elf/4.1.2/../../../../nios2-elf/lib\libc.a(lib_a-strcmp.o)
 .bss           0x00f3330c        0x0 c:/altera/13.0sp1/nios2eds/bin/gnu/h-i686-mingw32/bin/../lib/gcc/nios2-elf/4.1.2/../../../../nios2-elf/lib\libc.a(lib_a-writer.o)
 .bss           0x00f3330c        0x0 c:/altera/13.0sp1/nios2eds/bin/gnu/h-i686-mingw32/bin/../lib/gcc/nios2-elf/4.1.2/../../../../nios2-elf/lib\libc.a(lib_a-callocr.o)
 .bss           0x00f3330c        0x0 c:/altera/13.0sp1/nios2eds/bin/gnu/h-i686-mingw32/bin/../lib/gcc/nios2-elf/4.1.2/../../../../nios2-elf/lib\libc.a(lib_a-closer.o)
 .bss           0x00f3330c        0x0 c:/altera/13.0sp1/nios2eds/bin/gnu/h-i686-mingw32/bin/../lib/gcc/nios2-elf/4.1.2/../../../../nios2-elf/lib\libc.a(lib_a-fclose.o)
 .bss           0x00f3330c        0x0 c:/altera/13.0sp1/nios2eds/bin/gnu/h-i686-mingw32/bin/../lib/gcc/nios2-elf/4.1.2/../../../../nios2-elf/lib\libc.a(lib_a-fstatr.o)
 .bss           0x00f3330c        0x0 c:/altera/13.0sp1/nios2eds/bin/gnu/h-i686-mingw32/bin/../lib/gcc/nios2-elf/4.1.2/../../../../nios2-elf/lib\libc.a(lib_a-isattyr.o)
 .bss           0x00f3330c        0x0 c:/altera/13.0sp1/nios2eds/bin/gnu/h-i686-mingw32/bin/../lib/gcc/nios2-elf/4.1.2/../../../../nios2-elf/lib\libc.a(lib_a-lseekr.o)
 .bss           0x00f3330c        0x0 c:/altera/13.0sp1/nios2eds/bin/gnu/h-i686-mingw32/bin/../lib/gcc/nios2-elf/4.1.2/../../../../nios2-elf/lib\libc.a(lib_a-readr.o)
 .bss           0x00f3330c        0x0 c:/altera/13.0sp1/nios2eds/bin/gnu/h-i686-mingw32/bin/../lib/gcc/nios2-elf/4.1.2\libgcc.a(_udivdi3.o)
 .bss           0x00f3330c        0x0 c:/altera/13.0sp1/nios2eds/bin/gnu/h-i686-mingw32/bin/../lib/gcc/nios2-elf/4.1.2\libgcc.a(_umoddi3.o)
 .bss           0x00f3330c        0x0 c:/altera/13.0sp1/nios2eds/bin/gnu/h-i686-mingw32/bin/../lib/gcc/nios2-elf/4.1.2\libgcc.a(_addsub_df.o)
 .bss           0x00f3330c        0x0 c:/altera/13.0sp1/nios2eds/bin/gnu/h-i686-mingw32/bin/../lib/gcc/nios2-elf/4.1.2\libgcc.a(_mul_df.o)
 .bss           0x00f3330c        0x0 c:/altera/13.0sp1/nios2eds/bin/gnu/h-i686-mingw32/bin/../lib/gcc/nios2-elf/4.1.2\libgcc.a(_div_df.o)
 .bss           0x00f3330c        0x0 c:/altera/13.0sp1/nios2eds/bin/gnu/h-i686-mingw32/bin/../lib/gcc/nios2-elf/4.1.2\libgcc.a(_eq_df.o)
 .bss           0x00f3330c        0x0 c:/altera/13.0sp1/nios2eds/bin/gnu/h-i686-mingw32/bin/../lib/gcc/nios2-elf/4.1.2\libgcc.a(_ne_df.o)
 .bss           0x00f3330c        0x0 c:/altera/13.0sp1/nios2eds/bin/gnu/h-i686-mingw32/bin/../lib/gcc/nios2-elf/4.1.2\libgcc.a(_gt_df.o)
 .bss           0x00f3330c        0x0 c:/altera/13.0sp1/nios2eds/bin/gnu/h-i686-mingw32/bin/../lib/gcc/nios2-elf/4.1.2\libgcc.a(_ge_df.o)
 .bss           0x00f3330c        0x0 c:/altera/13.0sp1/nios2eds/bin/gnu/h-i686-mingw32/bin/../lib/gcc/nios2-elf/4.1.2\libgcc.a(_lt_df.o)
 .bss           0x00f3330c        0x0 c:/altera/13.0sp1/nios2eds/bin/gnu/h-i686-mingw32/bin/../lib/gcc/nios2-elf/4.1.2\libgcc.a(_si_to_df.o)
 .bss           0x00f3330c        0x0 c:/altera/13.0sp1/nios2eds/bin/gnu/h-i686-mingw32/bin/../lib/gcc/nios2-elf/4.1.2\libgcc.a(_df_to_si.o)
 .bss           0x00f3330c        0x0 c:/altera/13.0sp1/nios2eds/bin/gnu/h-i686-mingw32/bin/../lib/gcc/nios2-elf/4.1.2\libgcc.a(_thenan_df.o)
 .bss           0x00f3330c        0x0 c:/altera/13.0sp1/nios2eds/bin/gnu/h-i686-mingw32/bin/../lib/gcc/nios2-elf/4.1.2\libgcc.a(_usi_to_df.o)
 .bss           0x00f3330c        0x0 c:/altera/13.0sp1/nios2eds/bin/gnu/h-i686-mingw32/bin/../lib/gcc/nios2-elf/4.1.2\libgcc.a(_muldi3.o)
 .bss           0x00f3330c        0x0 c:/altera/13.0sp1/nios2eds/bin/gnu/h-i686-mingw32/bin/../lib/gcc/nios2-elf/4.1.2\libgcc.a(_clz.o)
 .bss           0x00f3330c        0x0 c:/altera/13.0sp1/nios2eds/bin/gnu/h-i686-mingw32/bin/../lib/gcc/nios2-elf/4.1.2\libgcc.a(_clzsi2.o)
 .bss           0x00f3330c        0x0 c:/altera/13.0sp1/nios2eds/bin/gnu/h-i686-mingw32/bin/../lib/gcc/nios2-elf/4.1.2\libgcc.a(_pack_df.o)
 .bss           0x00f3330c        0x0 c:/altera/13.0sp1/nios2eds/bin/gnu/h-i686-mingw32/bin/../lib/gcc/nios2-elf/4.1.2\libgcc.a(_unpack_df.o)
 .bss           0x00f3330c        0x0 c:/altera/13.0sp1/nios2eds/bin/gnu/h-i686-mingw32/bin/../lib/gcc/nios2-elf/4.1.2\libgcc.a(_fpcmp_parts_df.o)
 .bss           0x00f3330c        0x0 ../lab5_bsp/\libucosii_bsp.a(alt_close.o)
 .bss           0x00f3330c        0x0 ../lab5_bsp/\libucosii_bsp.a(alt_dcache_flush_all.o)
 .bss           0x00f3330c        0x0 ../lab5_bsp/\libucosii_bsp.a(alt_dev.o)
 .bss           0x00f3330c        0x0 ../lab5_bsp/\libucosii_bsp.a(alt_errno.o)
 .bss           0x00f3330c        0x0 ../lab5_bsp/\libucosii_bsp.a(alt_fstat.o)
 .bss           0x00f3330c        0x0 ../lab5_bsp/\libucosii_bsp.a(alt_iic.o)
 .bss           0x00f3330c        0x0 ../lab5_bsp/\libucosii_bsp.a(alt_iic_isr_register.o)
 .bss           0x00f3330c        0x0 ../lab5_bsp/\libucosii_bsp.a(alt_irq_entry.o)
 .bss           0x00f3330c        0x0 ../lab5_bsp/\libucosii_bsp.a(alt_irq_handler.o)
 .bss           0x00f3330c        0x0 ../lab5_bsp/\libucosii_bsp.a(alt_irq_vars.o)
 .bss           0x00f3330c        0x0 ../lab5_bsp/\libucosii_bsp.a(alt_isatty.o)
 .bss           0x00f3330c        0x0 ../lab5_bsp/\libucosii_bsp.a(alt_load.o)
 .bss           0x00f3330c        0x0 ../lab5_bsp/\libucosii_bsp.a(alt_lseek.o)
 .bss           0x00f3330c        0x0 ../lab5_bsp/\libucosii_bsp.a(alt_main.o)
 .bss           0x00f3330c        0x0 ../lab5_bsp/\libucosii_bsp.a(alt_read.o)
 .bss           0x00f3330c        0x0 ../lab5_bsp/\libucosii_bsp.a(alt_release_fd.o)
 .bss           0x00f3330c        0x0 ../lab5_bsp/\libucosii_bsp.a(alt_sbrk.o)
 .bss           0x00f3330c        0x0 ../lab5_bsp/\libucosii_bsp.a(alt_tick.o)
 .bss           0x00f3330c        0x0 ../lab5_bsp/\libucosii_bsp.a(alt_write.o)
 .bss           0x00f3330c        0x0 ../lab5_bsp/\libucosii_bsp.a(alt_env_lock.o)
 .bss           0x00f3330c        0x0 ../lab5_bsp/\libucosii_bsp.a(alt_malloc_lock.o)
 .bss           0x00f3330c        0x0 ../lab5_bsp/\libucosii_bsp.a(os_core.o)
 .bss           0x00f3330c        0x0 ../lab5_bsp/\libucosii_bsp.a(os_dbg.o)
 .bss           0x00f3330c        0x0 ../lab5_bsp/\libucosii_bsp.a(os_flag.o)
 .bss           0x00f3330c        0x0 ../lab5_bsp/\libucosii_bsp.a(os_mem.o)
 .bss           0x00f3330c        0x0 ../lab5_bsp/\libucosii_bsp.a(os_q.o)
 .bss           0x00f3330c        0x0 ../lab5_bsp/\libucosii_bsp.a(os_sem.o)
 .bss           0x00f3330c        0x0 ../lab5_bsp/\libucosii_bsp.a(os_task.o)
 .bss           0x00f3330c        0x0 ../lab5_bsp/\libucosii_bsp.a(os_time.o)
 .bss           0x00f3330c        0x0 ../lab5_bsp/\libucosii_bsp.a(alt_sys_init.o)
 .bss           0x00f3330c        0x0 ../lab5_bsp/\libucosii_bsp.a(altera_avalon_jtag_uart_fd.o)
 .bss           0x00f3330c        0x0 ../lab5_bsp/\libucosii_bsp.a(altera_avalon_jtag_uart_init.o)
 .bss           0x00f3330c        0x0 ../lab5_bsp/\libucosii_bsp.a(altera_avalon_jtag_uart_ioctl.o)
 .bss           0x00f3330c        0x0 ../lab5_bsp/\libucosii_bsp.a(altera_avalon_jtag_uart_read.o)
 .bss           0x00f3330c        0x0 ../lab5_bsp/\libucosii_bsp.a(altera_avalon_jtag_uart_write.o)
 .bss           0x00f3330c        0x0 ../lab5_bsp/\libucosii_bsp.a(altera_avalon_timer_sc.o)
 .bss           0x00f3330c        0x0 ../lab5_bsp/\libucosii_bsp.a(alt_alarm_start.o)
 .bss           0x00f3330c        0x0 ../lab5_bsp/\libucosii_bsp.a(alt_dev_llist_insert.o)
 .bss           0x00f3330c        0x0 ../lab5_bsp/\libucosii_bsp.a(alt_do_ctors.o)
 .bss           0x00f3330c        0x0 ../lab5_bsp/\libucosii_bsp.a(alt_do_dtors.o)
 .bss           0x00f3330c        0x0 ../lab5_bsp/\libucosii_bsp.a(alt_exception_entry.o)
 .bss           0x00f3330c        0x0 ../lab5_bsp/\libucosii_bsp.a(alt_icache_flush_all.o)
 .bss           0x00f3330c        0x0 ../lab5_bsp/\libucosii_bsp.a(alt_io_redirect.o)
 .bss           0x00f3330c        0x0 ../lab5_bsp/\libucosii_bsp.a(alt_open.o)
 .bss           0x00f3330c        0x0 ../lab5_bsp/\libucosii_bsp.a(altera_nios2_qsys_irq.o)
 .bss           0x00f3330c        0x0 ../lab5_bsp/\libucosii_bsp.a(os_cpu_a.o)
 .bss           0x00f3330c        0x0 ../lab5_bsp/\libucosii_bsp.a(os_cpu_c.o)
 .bss           0x00f3330c        0x0 ../lab5_bsp/\libucosii_bsp.a(alt_find_dev.o)
 .bss           0x00f3330c        0x0 ../lab5_bsp/\libucosii_bsp.a(alt_find_file.o)
 .bss           0x00f3330c        0x0 ../lab5_bsp/\libucosii_bsp.a(alt_get_fd.o)
 .bss           0x00f3330c        0x0 ../lab5_bsp/\libucosii_bsp.a(alt_icache_flush.o)
 .bss           0x00f3330c        0x0 c:/altera/13.0sp1/nios2eds/bin/gnu/h-i686-mingw32/bin/../lib/gcc/nios2-elf/4.1.2/../../../../nios2-elf/lib\libc.a(lib_a-atexit.o)
 .bss           0x00f3330c        0x0 c:/altera/13.0sp1/nios2eds/bin/gnu/h-i686-mingw32/bin/../lib/gcc/nios2-elf/4.1.2/../../../../nios2-elf/lib\libc.a(lib_a-exit.o)
 .bss           0x00f3330c        0x0 c:/altera/13.0sp1/nios2eds/bin/gnu/h-i686-mingw32/bin/../lib/gcc/nios2-elf/4.1.2/../../../../nios2-elf/lib\libc.a(lib_a-memcmp.o)
 .bss           0x00f3330c        0x0 c:/altera/13.0sp1/nios2eds/bin/gnu/h-i686-mingw32/bin/../lib/gcc/nios2-elf/4.1.2/../../../../nios2-elf/lib\libc.a(lib_a-__atexit.o)
 .bss           0x00f3330c        0x0 c:/altera/13.0sp1/nios2eds/bin/gnu/h-i686-mingw32/bin/../lib/gcc/nios2-elf/4.1.2/../../../../nios2-elf/lib\libc.a(lib_a-__call_atexit.o)
 .bss           0x00f3330c        0x0 c:/altera/13.0sp1/nios2eds/bin/gnu/h-i686-mingw32/bin/../lib/gcc/nios2-elf/4.1.2\libgcc.a(_fixunsdfsi.o)
 .bss           0x00f3330c        0x0 ../lab5_bsp/\libucosii_bsp.a(alt_exit.o)
 *(COMMON)
 COMMON         0x00f3330c     0xc018 obj/default/hello_ucosii.o
                0x00f3330c                task1_stk
                0x00f3530c                buttons_control2
                0x00f35318                task4_stk
                0x00f37318                task6_stk
                0x00f39318                task2_stk
                0x00f3b318                task3_stk
                0x00f3d318                buttons_control1
                0x00f3d324                task5_stk
 COMMON         0x00f3f324      0x100 ../lab5_bsp/\libucosii_bsp.a(alt_irq_handler.o)
                0x00f3f324                alt_irq
 COMMON         0x00f3f424     0x3224 ../lab5_bsp/\libucosii_bsp.a(os_core.o)
                0x00f3f424                OSFlagTbl
                0x00f3f794                OSMemTbl
                0x00f403c4                OSTaskStatStk
                0x00f40bc4                OSQTbl
                0x00f40da4                OSTaskIdleStk
                0x00f415a4                OSEventTbl
                0x00f420e4                OSTCBTbl
                0x00f425f4                OSTCBPrioTbl
 COMMON         0x00f42648      0x190 c:/altera/13.0sp1/nios2eds/bin/gnu/h-i686-mingw32/bin/../lib/gcc/nios2-elf/4.1.2/../../../../nios2-elf/lib\libc.a(lib_a-atexit.o)
                0x00f42648                _atexit0
                0x00f427d8                . = ALIGN (0x4)
                0x00f427d8                __bss_end = ABSOLUTE (.)

.sdram          0x00f427d8        0x0
                0x00f427d8                PROVIDE (_alt_partition_sdram_start, ABSOLUTE (.))
 *(.sdram. sdram.*)
                0x00f427d8                . = ALIGN (0x4)
                0x00f427d8                PROVIDE (_alt_partition_sdram_end, ABSOLUTE (.))
                0x00f427d8                _end = ABSOLUTE (.)
                0x00f427d8                end = ABSOLUTE (.)
                0x00f427d8                __alt_stack_base = ABSOLUTE (.)
                0x00f427d8                PROVIDE (_alt_partition_sdram_load_addr, LOADADDR (.sdram))

.stab
 *(.stab)

.stabstr
 *(.stabstr)

.stab.excl
 *(.stab.excl)

.stab.exclstr
 *(.stab.exclstr)

.stab.index
 *(.stab.index)

.stab.indexstr
 *(.stab.indexstr)

.comment        0x00000000       0x26
 *(.comment)
 .comment       0x00000000       0x26 obj/default/drivers/drivers.o
                                 0x27 (size before relaxing)
 .comment       0x00000000       0x27 obj/default/fonts/tahomabold_20.o
 .comment       0x00000000       0x27 obj/default/fonts/tahomabold_32.o
 .comment       0x00000000       0x27 obj/default/frame.o
 .comment       0x00000000       0x27 obj/default/graphic_lib/draw_gimps.o
 .comment       0x00000000       0x27 obj/default/graphic_lib/gimp_bmp.o
 .comment       0x00000000       0x27 obj/default/graphic_lib/simple_graphics.o
 .comment       0x00000000       0x27 obj/default/graphic_lib/simple_text.o
 .comment       0x00000000       0x27 obj/default/hello_ucosii.o
 .comment       0x00000000       0x27 obj/default/imagenes/back_down.o
 .comment       0x00000000       0x27 obj/default/imagenes/back_up.o
 .comment       0x00000000       0x27 obj/default/imagenes/ford_down.o
 .comment       0x00000000       0x27 obj/default/imagenes/ford_up.o
 .comment       0x00000000       0x27 obj/default/imagenes/pause_down.o
 .comment       0x00000000       0x27 obj/default/imagenes/pause_up.o
 .comment       0x00000000       0x27 obj/default/imagenes/play_down.o
 .comment       0x00000000       0x27 obj/default/imagenes/play_up.o
 .comment       0x00000000       0x27 obj/default/imagenes/stop_down.o
 .comment       0x00000000       0x27 obj/default/imagenes/stop_up.o
 .comment       0x00000000       0x27 obj/default/song/song.o
 .comment       0x00000000       0x27 obj/default/student_code/student_code.o
 .comment       0x00000000       0x27 obj/default/vip_fr.o
 .comment       0x00000000       0x27 c:/altera/13.0sp1/nios2eds/bin/gnu/h-i686-mingw32/bin/../lib/gcc/nios2-elf/4.1.2\libgcc.a(_sf_to_si.o)
 .comment       0x00000000       0x27 c:/altera/13.0sp1/nios2eds/bin/gnu/h-i686-mingw32/bin/../lib/gcc/nios2-elf/4.1.2\libgcc.a(lib2-divmod.o)
 .comment       0x00000000       0x27 c:/altera/13.0sp1/nios2eds/bin/gnu/h-i686-mingw32/bin/../lib/gcc/nios2-elf/4.1.2\libgcc.a(_unpack_sf.o)
 .comment       0x00000000       0x27 c:/altera/13.0sp1/nios2eds/bin/gnu/h-i686-mingw32/bin/../lib/gcc/nios2-elf/4.1.2/../../../../nios2-elf/lib\libc.a(lib_a-malloc.o)
 .comment       0x00000000       0x27 c:/altera/13.0sp1/nios2eds/bin/gnu/h-i686-mingw32/bin/../lib/gcc/nios2-elf/4.1.2/../../../../nios2-elf/lib\libc.a(lib_a-mallocr.o)
 .comment       0x00000000       0x27 c:/altera/13.0sp1/nios2eds/bin/gnu/h-i686-mingw32/bin/../lib/gcc/nios2-elf/4.1.2/../../../../nios2-elf/lib\libc.a(lib_a-memcpy.o)
 .comment       0x00000000       0x27 c:/altera/13.0sp1/nios2eds/bin/gnu/h-i686-mingw32/bin/../lib/gcc/nios2-elf/4.1.2/../../../../nios2-elf/lib\libc.a(lib_a-memset.o)
 .comment       0x00000000       0x27 c:/altera/13.0sp1/nios2eds/bin/gnu/h-i686-mingw32/bin/../lib/gcc/nios2-elf/4.1.2/../../../../nios2-elf/lib\libc.a(lib_a-printf.o)
 .comment       0x00000000       0x27 c:/altera/13.0sp1/nios2eds/bin/gnu/h-i686-mingw32/bin/../lib/gcc/nios2-elf/4.1.2/../../../../nios2-elf/lib\libc.a(lib_a-sbrkr.o)
 .comment       0x00000000       0x27 c:/altera/13.0sp1/nios2eds/bin/gnu/h-i686-mingw32/bin/../lib/gcc/nios2-elf/4.1.2/../../../../nios2-elf/lib\libc.a(lib_a-strcpy.o)
 .comment       0x00000000       0x27 c:/altera/13.0sp1/nios2eds/bin/gnu/h-i686-mingw32/bin/../lib/gcc/nios2-elf/4.1.2/../../../../nios2-elf/lib\libc.a(lib_a-strlen.o)
 .comment       0x00000000       0x27 c:/altera/13.0sp1/nios2eds/bin/gnu/h-i686-mingw32/bin/../lib/gcc/nios2-elf/4.1.2/../../../../nios2-elf/lib\libc.a(lib_a-vfprintf.o)
 .comment       0x00000000       0x27 c:/altera/13.0sp1/nios2eds/bin/gnu/h-i686-mingw32/bin/../lib/gcc/nios2-elf/4.1.2/../../../../nios2-elf/lib\libc.a(lib_a-wsetup.o)
 .comment       0x00000000       0x27 c:/altera/13.0sp1/nios2eds/bin/gnu/h-i686-mingw32/bin/../lib/gcc/nios2-elf/4.1.2/../../../../nios2-elf/lib\libc.a(lib_a-dtoa.o)
 .comment       0x00000000       0x27 c:/altera/13.0sp1/nios2eds/bin/gnu/h-i686-mingw32/bin/../lib/gcc/nios2-elf/4.1.2/../../../../nios2-elf/lib\libc.a(lib_a-fflush.o)
 .comment       0x00000000       0x27 c:/altera/13.0sp1/nios2eds/bin/gnu/h-i686-mingw32/bin/../lib/gcc/nios2-elf/4.1.2/../../../../nios2-elf/lib\libc.a(lib_a-findfp.o)
 .comment       0x00000000       0x27 c:/altera/13.0sp1/nios2eds/bin/gnu/h-i686-mingw32/bin/../lib/gcc/nios2-elf/4.1.2/../../../../nios2-elf/lib\libc.a(lib_a-freer.o)
 .comment       0x00000000       0x27 c:/altera/13.0sp1/nios2eds/bin/gnu/h-i686-mingw32/bin/../lib/gcc/nios2-elf/4.1.2/../../../../nios2-elf/lib\libc.a(lib_a-fvwrite.o)
 .comment       0x00000000       0x27 c:/altera/13.0sp1/nios2eds/bin/gnu/h-i686-mingw32/bin/../lib/gcc/nios2-elf/4.1.2/../../../../nios2-elf/lib\libc.a(lib_a-fwalk.o)
 .comment       0x00000000       0x27 c:/altera/13.0sp1/nios2eds/bin/gnu/h-i686-mingw32/bin/../lib/gcc/nios2-elf/4.1.2/../../../../nios2-elf/lib\libc.a(lib_a-impure.o)
 .comment       0x00000000       0x27 c:/altera/13.0sp1/nios2eds/bin/gnu/h-i686-mingw32/bin/../lib/gcc/nios2-elf/4.1.2/../../../../nios2-elf/lib\libc.a(lib_a-int_errno.o)
 .comment       0x00000000       0x27 c:/altera/13.0sp1/nios2eds/bin/gnu/h-i686-mingw32/bin/../lib/gcc/nios2-elf/4.1.2/../../../../nios2-elf/lib\libc.a(lib_a-locale.o)
 .comment       0x00000000       0x27 c:/altera/13.0sp1/nios2eds/bin/gnu/h-i686-mingw32/bin/../lib/gcc/nios2-elf/4.1.2/../../../../nios2-elf/lib\libc.a(lib_a-makebuf.o)
 .comment       0x00000000       0x27 c:/altera/13.0sp1/nios2eds/bin/gnu/h-i686-mingw32/bin/../lib/gcc/nios2-elf/4.1.2/../../../../nios2-elf/lib\libc.a(lib_a-memchr.o)
 .comment       0x00000000       0x27 c:/altera/13.0sp1/nios2eds/bin/gnu/h-i686-mingw32/bin/../lib/gcc/nios2-elf/4.1.2/../../../../nios2-elf/lib\libc.a(lib_a-memmove.o)
 .comment       0x00000000       0x27 c:/altera/13.0sp1/nios2eds/bin/gnu/h-i686-mingw32/bin/../lib/gcc/nios2-elf/4.1.2/../../../../nios2-elf/lib\libc.a(lib_a-mprec.o)
 .comment       0x00000000       0x27 c:/altera/13.0sp1/nios2eds/bin/gnu/h-i686-mingw32/bin/../lib/gcc/nios2-elf/4.1.2/../../../../nios2-elf/lib\libc.a(lib_a-reallocr.o)
 .comment       0x00000000       0x27 c:/altera/13.0sp1/nios2eds/bin/gnu/h-i686-mingw32/bin/../lib/gcc/nios2-elf/4.1.2/../../../../nios2-elf/lib\libc.a(lib_a-s_isinfd.o)
 .comment       0x00000000       0x27 c:/altera/13.0sp1/nios2eds/bin/gnu/h-i686-mingw32/bin/../lib/gcc/nios2-elf/4.1.2/../../../../nios2-elf/lib\libc.a(lib_a-s_isnand.o)
 .comment       0x00000000       0x27 c:/altera/13.0sp1/nios2eds/bin/gnu/h-i686-mingw32/bin/../lib/gcc/nios2-elf/4.1.2/../../../../nios2-elf/lib\libc.a(lib_a-stdio.o)
 .comment       0x00000000       0x27 c:/altera/13.0sp1/nios2eds/bin/gnu/h-i686-mingw32/bin/../lib/gcc/nios2-elf/4.1.2/../../../../nios2-elf/lib\libc.a(lib_a-strcmp.o)
 .comment       0x00000000       0x27 c:/altera/13.0sp1/nios2eds/bin/gnu/h-i686-mingw32/bin/../lib/gcc/nios2-elf/4.1.2/../../../../nios2-elf/lib\libc.a(lib_a-writer.o)
 .comment       0x00000000       0x27 c:/altera/13.0sp1/nios2eds/bin/gnu/h-i686-mingw32/bin/../lib/gcc/nios2-elf/4.1.2/../../../../nios2-elf/lib\libc.a(lib_a-callocr.o)
 .comment       0x00000000       0x27 c:/altera/13.0sp1/nios2eds/bin/gnu/h-i686-mingw32/bin/../lib/gcc/nios2-elf/4.1.2/../../../../nios2-elf/lib\libc.a(lib_a-closer.o)
 .comment       0x00000000       0x27 c:/altera/13.0sp1/nios2eds/bin/gnu/h-i686-mingw32/bin/../lib/gcc/nios2-elf/4.1.2/../../../../nios2-elf/lib\libc.a(lib_a-fclose.o)
 .comment       0x00000000       0x27 c:/altera/13.0sp1/nios2eds/bin/gnu/h-i686-mingw32/bin/../lib/gcc/nios2-elf/4.1.2/../../../../nios2-elf/lib\libc.a(lib_a-fstatr.o)
 .comment       0x00000000       0x27 c:/altera/13.0sp1/nios2eds/bin/gnu/h-i686-mingw32/bin/../lib/gcc/nios2-elf/4.1.2/../../../../nios2-elf/lib\libc.a(lib_a-isattyr.o)
 .comment       0x00000000       0x27 c:/altera/13.0sp1/nios2eds/bin/gnu/h-i686-mingw32/bin/../lib/gcc/nios2-elf/4.1.2/../../../../nios2-elf/lib\libc.a(lib_a-lseekr.o)
 .comment       0x00000000       0x27 c:/altera/13.0sp1/nios2eds/bin/gnu/h-i686-mingw32/bin/../lib/gcc/nios2-elf/4.1.2/../../../../nios2-elf/lib\libc.a(lib_a-readr.o)
 .comment       0x00000000       0x27 c:/altera/13.0sp1/nios2eds/bin/gnu/h-i686-mingw32/bin/../lib/gcc/nios2-elf/4.1.2\libgcc.a(_udivdi3.o)
 .comment       0x00000000       0x27 c:/altera/13.0sp1/nios2eds/bin/gnu/h-i686-mingw32/bin/../lib/gcc/nios2-elf/4.1.2\libgcc.a(_umoddi3.o)
 .comment       0x00000000       0x27 c:/altera/13.0sp1/nios2eds/bin/gnu/h-i686-mingw32/bin/../lib/gcc/nios2-elf/4.1.2\libgcc.a(_addsub_df.o)
 .comment       0x00000000       0x27 c:/altera/13.0sp1/nios2eds/bin/gnu/h-i686-mingw32/bin/../lib/gcc/nios2-elf/4.1.2\libgcc.a(_mul_df.o)
 .comment       0x00000000       0x27 c:/altera/13.0sp1/nios2eds/bin/gnu/h-i686-mingw32/bin/../lib/gcc/nios2-elf/4.1.2\libgcc.a(_div_df.o)
 .comment       0x00000000       0x27 c:/altera/13.0sp1/nios2eds/bin/gnu/h-i686-mingw32/bin/../lib/gcc/nios2-elf/4.1.2\libgcc.a(_eq_df.o)
 .comment       0x00000000       0x27 c:/altera/13.0sp1/nios2eds/bin/gnu/h-i686-mingw32/bin/../lib/gcc/nios2-elf/4.1.2\libgcc.a(_ne_df.o)
 .comment       0x00000000       0x27 c:/altera/13.0sp1/nios2eds/bin/gnu/h-i686-mingw32/bin/../lib/gcc/nios2-elf/4.1.2\libgcc.a(_gt_df.o)
 .comment       0x00000000       0x27 c:/altera/13.0sp1/nios2eds/bin/gnu/h-i686-mingw32/bin/../lib/gcc/nios2-elf/4.1.2\libgcc.a(_ge_df.o)
 .comment       0x00000000       0x27 c:/altera/13.0sp1/nios2eds/bin/gnu/h-i686-mingw32/bin/../lib/gcc/nios2-elf/4.1.2\libgcc.a(_lt_df.o)
 .comment       0x00000000       0x27 c:/altera/13.0sp1/nios2eds/bin/gnu/h-i686-mingw32/bin/../lib/gcc/nios2-elf/4.1.2\libgcc.a(_si_to_df.o)
 .comment       0x00000000       0x27 c:/altera/13.0sp1/nios2eds/bin/gnu/h-i686-mingw32/bin/../lib/gcc/nios2-elf/4.1.2\libgcc.a(_df_to_si.o)
 .comment       0x00000000       0x27 c:/altera/13.0sp1/nios2eds/bin/gnu/h-i686-mingw32/bin/../lib/gcc/nios2-elf/4.1.2\libgcc.a(_thenan_df.o)
 .comment       0x00000000       0x27 c:/altera/13.0sp1/nios2eds/bin/gnu/h-i686-mingw32/bin/../lib/gcc/nios2-elf/4.1.2\libgcc.a(_usi_to_df.o)
 .comment       0x00000000       0x27 c:/altera/13.0sp1/nios2eds/bin/gnu/h-i686-mingw32/bin/../lib/gcc/nios2-elf/4.1.2\libgcc.a(_muldi3.o)
 .comment       0x00000000       0x27 c:/altera/13.0sp1/nios2eds/bin/gnu/h-i686-mingw32/bin/../lib/gcc/nios2-elf/4.1.2\libgcc.a(_clz.o)
 .comment       0x00000000       0x27 c:/altera/13.0sp1/nios2eds/bin/gnu/h-i686-mingw32/bin/../lib/gcc/nios2-elf/4.1.2\libgcc.a(_clzsi2.o)
 .comment       0x00000000       0x27 c:/altera/13.0sp1/nios2eds/bin/gnu/h-i686-mingw32/bin/../lib/gcc/nios2-elf/4.1.2\libgcc.a(_pack_df.o)
 .comment       0x00000000       0x27 c:/altera/13.0sp1/nios2eds/bin/gnu/h-i686-mingw32/bin/../lib/gcc/nios2-elf/4.1.2\libgcc.a(_unpack_df.o)
 .comment       0x00000000       0x27 c:/altera/13.0sp1/nios2eds/bin/gnu/h-i686-mingw32/bin/../lib/gcc/nios2-elf/4.1.2\libgcc.a(_fpcmp_parts_df.o)
 .comment       0x00000000       0x27 ../lab5_bsp/\libucosii_bsp.a(alt_close.o)
 .comment       0x00000000       0x27 ../lab5_bsp/\libucosii_bsp.a(alt_dcache_flush_all.o)
 .comment       0x00000000       0x27 ../lab5_bsp/\libucosii_bsp.a(alt_dev.o)
 .comment       0x00000000       0x27 ../lab5_bsp/\libucosii_bsp.a(alt_errno.o)
 .comment       0x00000000       0x27 ../lab5_bsp/\libucosii_bsp.a(alt_fstat.o)
 .comment       0x00000000       0x27 ../lab5_bsp/\libucosii_bsp.a(alt_iic.o)
 .comment       0x00000000       0x27 ../lab5_bsp/\libucosii_bsp.a(alt_iic_isr_register.o)
 .comment       0x00000000       0x27 ../lab5_bsp/\libucosii_bsp.a(alt_irq_handler.o)
 .comment       0x00000000       0x27 ../lab5_bsp/\libucosii_bsp.a(alt_irq_vars.o)
 .comment       0x00000000       0x27 ../lab5_bsp/\libucosii_bsp.a(alt_isatty.o)
 .comment       0x00000000       0x27 ../lab5_bsp/\libucosii_bsp.a(alt_load.o)
 .comment       0x00000000       0x27 ../lab5_bsp/\libucosii_bsp.a(alt_lseek.o)
 .comment       0x00000000       0x27 ../lab5_bsp/\libucosii_bsp.a(alt_main.o)
 .comment       0x00000000       0x27 ../lab5_bsp/\libucosii_bsp.a(alt_read.o)
 .comment       0x00000000       0x27 ../lab5_bsp/\libucosii_bsp.a(alt_release_fd.o)
 .comment       0x00000000       0x27 ../lab5_bsp/\libucosii_bsp.a(alt_sbrk.o)
 .comment       0x00000000       0x27 ../lab5_bsp/\libucosii_bsp.a(alt_tick.o)
 .comment       0x00000000       0x27 ../lab5_bsp/\libucosii_bsp.a(alt_write.o)
 .comment       0x00000000       0x27 ../lab5_bsp/\libucosii_bsp.a(alt_env_lock.o)
 .comment       0x00000000       0x27 ../lab5_bsp/\libucosii_bsp.a(alt_malloc_lock.o)
 .comment       0x00000000       0x27 ../lab5_bsp/\libucosii_bsp.a(os_core.o)
 .comment       0x00000000       0x27 ../lab5_bsp/\libucosii_bsp.a(os_dbg.o)
 .comment       0x00000000       0x27 ../lab5_bsp/\libucosii_bsp.a(os_flag.o)
 .comment       0x00000000       0x27 ../lab5_bsp/\libucosii_bsp.a(os_mem.o)
 .comment       0x00000000       0x27 ../lab5_bsp/\libucosii_bsp.a(os_q.o)
 .comment       0x00000000       0x27 ../lab5_bsp/\libucosii_bsp.a(os_sem.o)
 .comment       0x00000000       0x27 ../lab5_bsp/\libucosii_bsp.a(os_task.o)
 .comment       0x00000000       0x27 ../lab5_bsp/\libucosii_bsp.a(os_time.o)
 .comment       0x00000000       0x27 ../lab5_bsp/\libucosii_bsp.a(alt_sys_init.o)
 .comment       0x00000000       0x27 ../lab5_bsp/\libucosii_bsp.a(altera_avalon_jtag_uart_fd.o)
 .comment       0x00000000       0x27 ../lab5_bsp/\libucosii_bsp.a(altera_avalon_jtag_uart_init.o)
 .comment       0x00000000       0x27 ../lab5_bsp/\libucosii_bsp.a(altera_avalon_jtag_uart_ioctl.o)
 .comment       0x00000000       0x27 ../lab5_bsp/\libucosii_bsp.a(altera_avalon_jtag_uart_read.o)
 .comment       0x00000000       0x27 ../lab5_bsp/\libucosii_bsp.a(altera_avalon_jtag_uart_write.o)
 .comment       0x00000000       0x27 ../lab5_bsp/\libucosii_bsp.a(altera_avalon_timer_sc.o)
 .comment       0x00000000       0x27 ../lab5_bsp/\libucosii_bsp.a(alt_alarm_start.o)
 .comment       0x00000000       0x27 ../lab5_bsp/\libucosii_bsp.a(alt_dev_llist_insert.o)
 .comment       0x00000000       0x27 ../lab5_bsp/\libucosii_bsp.a(alt_do_ctors.o)
 .comment       0x00000000       0x27 ../lab5_bsp/\libucosii_bsp.a(alt_do_dtors.o)
 .comment       0x00000000       0x27 ../lab5_bsp/\libucosii_bsp.a(alt_icache_flush_all.o)
 .comment       0x00000000       0x27 ../lab5_bsp/\libucosii_bsp.a(alt_io_redirect.o)
 .comment       0x00000000       0x27 ../lab5_bsp/\libucosii_bsp.a(alt_open.o)
 .comment       0x00000000       0x27 ../lab5_bsp/\libucosii_bsp.a(altera_nios2_qsys_irq.o)
 .comment       0x00000000       0x27 ../lab5_bsp/\libucosii_bsp.a(os_cpu_c.o)
 .comment       0x00000000       0x27 ../lab5_bsp/\libucosii_bsp.a(alt_find_dev.o)
 .comment       0x00000000       0x27 ../lab5_bsp/\libucosii_bsp.a(alt_find_file.o)
 .comment       0x00000000       0x27 ../lab5_bsp/\libucosii_bsp.a(alt_get_fd.o)
 .comment       0x00000000       0x27 ../lab5_bsp/\libucosii_bsp.a(alt_icache_flush.o)
 .comment       0x00000000       0x27 c:/altera/13.0sp1/nios2eds/bin/gnu/h-i686-mingw32/bin/../lib/gcc/nios2-elf/4.1.2/../../../../nios2-elf/lib\libc.a(lib_a-atexit.o)
 .comment       0x00000000       0x27 c:/altera/13.0sp1/nios2eds/bin/gnu/h-i686-mingw32/bin/../lib/gcc/nios2-elf/4.1.2/../../../../nios2-elf/lib\libc.a(lib_a-exit.o)
 .comment       0x00000000       0x27 c:/altera/13.0sp1/nios2eds/bin/gnu/h-i686-mingw32/bin/../lib/gcc/nios2-elf/4.1.2/../../../../nios2-elf/lib\libc.a(lib_a-memcmp.o)
 .comment       0x00000000       0x27 c:/altera/13.0sp1/nios2eds/bin/gnu/h-i686-mingw32/bin/../lib/gcc/nios2-elf/4.1.2/../../../../nios2-elf/lib\libc.a(lib_a-__atexit.o)
 .comment       0x00000000       0x27 c:/altera/13.0sp1/nios2eds/bin/gnu/h-i686-mingw32/bin/../lib/gcc/nios2-elf/4.1.2/../../../../nios2-elf/lib\libc.a(lib_a-__call_atexit.o)
 .comment       0x00000000       0x27 c:/altera/13.0sp1/nios2eds/bin/gnu/h-i686-mingw32/bin/../lib/gcc/nios2-elf/4.1.2\libgcc.a(_fixunsdfsi.o)
 .comment       0x00000000       0x27 ../lab5_bsp/\libucosii_bsp.a(alt_exit.o)

.debug
 *(.debug)

.line
 *(.line)

.debug_srcinfo
 *(.debug_srcinfo)

.debug_sfnames
 *(.debug_sfnames)

.debug_aranges  0x00000000      0xf58
 *(.debug_aranges)
 .debug_aranges
                0x00000000       0x28 ../lab5_bsp//obj/HAL/src/crt0.o
 .debug_aranges
                0x00000028       0x20 obj/default/drivers/drivers.o
 .debug_aranges
                0x00000048       0x20 obj/default/frame.o
 .debug_aranges
                0x00000068       0x20 obj/default/graphic_lib/draw_gimps.o
 .debug_aranges
                0x00000088       0x20 obj/default/graphic_lib/gimp_bmp.o
 .debug_aranges
                0x000000a8       0x20 obj/default/graphic_lib/simple_graphics.o
 .debug_aranges
                0x000000c8       0x20 obj/default/graphic_lib/simple_text.o
 .debug_aranges
                0x000000e8       0x20 obj/default/hello_ucosii.o
 .debug_aranges
                0x00000108       0x20 obj/default/student_code/student_code.o
 .debug_aranges
                0x00000128       0x20 obj/default/vip_fr.o
 .debug_aranges
                0x00000148       0x20 c:/altera/13.0sp1/nios2eds/bin/gnu/h-i686-mingw32/bin/../lib/gcc/nios2-elf/4.1.2\libgcc.a(_sf_to_si.o)
 .debug_aranges
                0x00000168       0x20 c:/altera/13.0sp1/nios2eds/bin/gnu/h-i686-mingw32/bin/../lib/gcc/nios2-elf/4.1.2\libgcc.a(lib2-divmod.o)
 .debug_aranges
                0x00000188       0x20 c:/altera/13.0sp1/nios2eds/bin/gnu/h-i686-mingw32/bin/../lib/gcc/nios2-elf/4.1.2\libgcc.a(_unpack_sf.o)
 .debug_aranges
                0x000001a8       0x20 c:/altera/13.0sp1/nios2eds/bin/gnu/h-i686-mingw32/bin/../lib/gcc/nios2-elf/4.1.2/../../../../nios2-elf/lib\libc.a(lib_a-malloc.o)
 .debug_aranges
                0x000001c8       0x20 c:/altera/13.0sp1/nios2eds/bin/gnu/h-i686-mingw32/bin/../lib/gcc/nios2-elf/4.1.2/../../../../nios2-elf/lib\libc.a(lib_a-mallocr.o)
 .debug_aranges
                0x000001e8       0x20 c:/altera/13.0sp1/nios2eds/bin/gnu/h-i686-mingw32/bin/../lib/gcc/nios2-elf/4.1.2/../../../../nios2-elf/lib\libc.a(lib_a-memcpy.o)
 .debug_aranges
                0x00000208       0x20 c:/altera/13.0sp1/nios2eds/bin/gnu/h-i686-mingw32/bin/../lib/gcc/nios2-elf/4.1.2/../../../../nios2-elf/lib\libc.a(lib_a-memset.o)
 .debug_aranges
                0x00000228       0x20 c:/altera/13.0sp1/nios2eds/bin/gnu/h-i686-mingw32/bin/../lib/gcc/nios2-elf/4.1.2/../../../../nios2-elf/lib\libc.a(lib_a-printf.o)
 .debug_aranges
                0x00000248       0x20 c:/altera/13.0sp1/nios2eds/bin/gnu/h-i686-mingw32/bin/../lib/gcc/nios2-elf/4.1.2/../../../../nios2-elf/lib\libc.a(lib_a-sbrkr.o)
 .debug_aranges
                0x00000268       0x20 c:/altera/13.0sp1/nios2eds/bin/gnu/h-i686-mingw32/bin/../lib/gcc/nios2-elf/4.1.2/../../../../nios2-elf/lib\libc.a(lib_a-strcpy.o)
 .debug_aranges
                0x00000288       0x20 c:/altera/13.0sp1/nios2eds/bin/gnu/h-i686-mingw32/bin/../lib/gcc/nios2-elf/4.1.2/../../../../nios2-elf/lib\libc.a(lib_a-strlen.o)
 .debug_aranges
                0x000002a8       0x20 c:/altera/13.0sp1/nios2eds/bin/gnu/h-i686-mingw32/bin/../lib/gcc/nios2-elf/4.1.2/../../../../nios2-elf/lib\libc.a(lib_a-vfprintf.o)
 .debug_aranges
                0x000002c8       0x20 c:/altera/13.0sp1/nios2eds/bin/gnu/h-i686-mingw32/bin/../lib/gcc/nios2-elf/4.1.2/../../../../nios2-elf/lib\libc.a(lib_a-wsetup.o)
 .debug_aranges
                0x000002e8       0x20 c:/altera/13.0sp1/nios2eds/bin/gnu/h-i686-mingw32/bin/../lib/gcc/nios2-elf/4.1.2/../../../../nios2-elf/lib\libc.a(lib_a-dtoa.o)
 .debug_aranges
                0x00000308       0x20 c:/altera/13.0sp1/nios2eds/bin/gnu/h-i686-mingw32/bin/../lib/gcc/nios2-elf/4.1.2/../../../../nios2-elf/lib\libc.a(lib_a-fflush.o)
 .debug_aranges
                0x00000328       0x20 c:/altera/13.0sp1/nios2eds/bin/gnu/h-i686-mingw32/bin/../lib/gcc/nios2-elf/4.1.2/../../../../nios2-elf/lib\libc.a(lib_a-findfp.o)
 .debug_aranges
                0x00000348       0x20 c:/altera/13.0sp1/nios2eds/bin/gnu/h-i686-mingw32/bin/../lib/gcc/nios2-elf/4.1.2/../../../../nios2-elf/lib\libc.a(lib_a-freer.o)
 .debug_aranges
                0x00000368       0x20 c:/altera/13.0sp1/nios2eds/bin/gnu/h-i686-mingw32/bin/../lib/gcc/nios2-elf/4.1.2/../../../../nios2-elf/lib\libc.a(lib_a-fvwrite.o)
 .debug_aranges
                0x00000388       0x20 c:/altera/13.0sp1/nios2eds/bin/gnu/h-i686-mingw32/bin/../lib/gcc/nios2-elf/4.1.2/../../../../nios2-elf/lib\libc.a(lib_a-fwalk.o)
 .debug_aranges
                0x000003a8       0x20 c:/altera/13.0sp1/nios2eds/bin/gnu/h-i686-mingw32/bin/../lib/gcc/nios2-elf/4.1.2/../../../../nios2-elf/lib\libc.a(lib_a-locale.o)
 .debug_aranges
                0x000003c8       0x20 c:/altera/13.0sp1/nios2eds/bin/gnu/h-i686-mingw32/bin/../lib/gcc/nios2-elf/4.1.2/../../../../nios2-elf/lib\libc.a(lib_a-makebuf.o)
 .debug_aranges
                0x000003e8       0x20 c:/altera/13.0sp1/nios2eds/bin/gnu/h-i686-mingw32/bin/../lib/gcc/nios2-elf/4.1.2/../../../../nios2-elf/lib\libc.a(lib_a-memchr.o)
 .debug_aranges
                0x00000408       0x20 c:/altera/13.0sp1/nios2eds/bin/gnu/h-i686-mingw32/bin/../lib/gcc/nios2-elf/4.1.2/../../../../nios2-elf/lib\libc.a(lib_a-memmove.o)
 .debug_aranges
                0x00000428       0x20 c:/altera/13.0sp1/nios2eds/bin/gnu/h-i686-mingw32/bin/../lib/gcc/nios2-elf/4.1.2/../../../../nios2-elf/lib\libc.a(lib_a-mprec.o)
 .debug_aranges
                0x00000448       0x20 c:/altera/13.0sp1/nios2eds/bin/gnu/h-i686-mingw32/bin/../lib/gcc/nios2-elf/4.1.2/../../../../nios2-elf/lib\libc.a(lib_a-reallocr.o)
 .debug_aranges
                0x00000468       0x20 c:/altera/13.0sp1/nios2eds/bin/gnu/h-i686-mingw32/bin/../lib/gcc/nios2-elf/4.1.2/../../../../nios2-elf/lib\libc.a(lib_a-s_isinfd.o)
 .debug_aranges
                0x00000488       0x20 c:/altera/13.0sp1/nios2eds/bin/gnu/h-i686-mingw32/bin/../lib/gcc/nios2-elf/4.1.2/../../../../nios2-elf/lib\libc.a(lib_a-s_isnand.o)
 .debug_aranges
                0x000004a8       0x20 c:/altera/13.0sp1/nios2eds/bin/gnu/h-i686-mingw32/bin/../lib/gcc/nios2-elf/4.1.2/../../../../nios2-elf/lib\libc.a(lib_a-stdio.o)
 .debug_aranges
                0x000004c8       0x20 c:/altera/13.0sp1/nios2eds/bin/gnu/h-i686-mingw32/bin/../lib/gcc/nios2-elf/4.1.2/../../../../nios2-elf/lib\libc.a(lib_a-strcmp.o)
 .debug_aranges
                0x000004e8       0x20 c:/altera/13.0sp1/nios2eds/bin/gnu/h-i686-mingw32/bin/../lib/gcc/nios2-elf/4.1.2/../../../../nios2-elf/lib\libc.a(lib_a-writer.o)
 .debug_aranges
                0x00000508       0x20 c:/altera/13.0sp1/nios2eds/bin/gnu/h-i686-mingw32/bin/../lib/gcc/nios2-elf/4.1.2/../../../../nios2-elf/lib\libc.a(lib_a-callocr.o)
 .debug_aranges
                0x00000528       0x20 c:/altera/13.0sp1/nios2eds/bin/gnu/h-i686-mingw32/bin/../lib/gcc/nios2-elf/4.1.2/../../../../nios2-elf/lib\libc.a(lib_a-closer.o)
 .debug_aranges
                0x00000548       0x20 c:/altera/13.0sp1/nios2eds/bin/gnu/h-i686-mingw32/bin/../lib/gcc/nios2-elf/4.1.2/../../../../nios2-elf/lib\libc.a(lib_a-fclose.o)
 .debug_aranges
                0x00000568       0x20 c:/altera/13.0sp1/nios2eds/bin/gnu/h-i686-mingw32/bin/../lib/gcc/nios2-elf/4.1.2/../../../../nios2-elf/lib\libc.a(lib_a-fstatr.o)
 .debug_aranges
                0x00000588       0x20 c:/altera/13.0sp1/nios2eds/bin/gnu/h-i686-mingw32/bin/../lib/gcc/nios2-elf/4.1.2/../../../../nios2-elf/lib\libc.a(lib_a-isattyr.o)
 .debug_aranges
                0x000005a8       0x20 c:/altera/13.0sp1/nios2eds/bin/gnu/h-i686-mingw32/bin/../lib/gcc/nios2-elf/4.1.2/../../../../nios2-elf/lib\libc.a(lib_a-lseekr.o)
 .debug_aranges
                0x000005c8       0x20 c:/altera/13.0sp1/nios2eds/bin/gnu/h-i686-mingw32/bin/../lib/gcc/nios2-elf/4.1.2/../../../../nios2-elf/lib\libc.a(lib_a-readr.o)
 .debug_aranges
                0x000005e8       0x20 c:/altera/13.0sp1/nios2eds/bin/gnu/h-i686-mingw32/bin/../lib/gcc/nios2-elf/4.1.2\libgcc.a(_udivdi3.o)
 .debug_aranges
                0x00000608       0x20 c:/altera/13.0sp1/nios2eds/bin/gnu/h-i686-mingw32/bin/../lib/gcc/nios2-elf/4.1.2\libgcc.a(_umoddi3.o)
 .debug_aranges
                0x00000628       0x20 c:/altera/13.0sp1/nios2eds/bin/gnu/h-i686-mingw32/bin/../lib/gcc/nios2-elf/4.1.2\libgcc.a(_addsub_df.o)
 .debug_aranges
                0x00000648       0x20 c:/altera/13.0sp1/nios2eds/bin/gnu/h-i686-mingw32/bin/../lib/gcc/nios2-elf/4.1.2\libgcc.a(_mul_df.o)
 .debug_aranges
                0x00000668       0x20 c:/altera/13.0sp1/nios2eds/bin/gnu/h-i686-mingw32/bin/../lib/gcc/nios2-elf/4.1.2\libgcc.a(_div_df.o)
 .debug_aranges
                0x00000688       0x20 c:/altera/13.0sp1/nios2eds/bin/gnu/h-i686-mingw32/bin/../lib/gcc/nios2-elf/4.1.2\libgcc.a(_eq_df.o)
 .debug_aranges
                0x000006a8       0x20 c:/altera/13.0sp1/nios2eds/bin/gnu/h-i686-mingw32/bin/../lib/gcc/nios2-elf/4.1.2\libgcc.a(_ne_df.o)
 .debug_aranges
                0x000006c8       0x20 c:/altera/13.0sp1/nios2eds/bin/gnu/h-i686-mingw32/bin/../lib/gcc/nios2-elf/4.1.2\libgcc.a(_gt_df.o)
 .debug_aranges
                0x000006e8       0x20 c:/altera/13.0sp1/nios2eds/bin/gnu/h-i686-mingw32/bin/../lib/gcc/nios2-elf/4.1.2\libgcc.a(_ge_df.o)
 .debug_aranges
                0x00000708       0x20 c:/altera/13.0sp1/nios2eds/bin/gnu/h-i686-mingw32/bin/../lib/gcc/nios2-elf/4.1.2\libgcc.a(_lt_df.o)
 .debug_aranges
                0x00000728       0x20 c:/altera/13.0sp1/nios2eds/bin/gnu/h-i686-mingw32/bin/../lib/gcc/nios2-elf/4.1.2\libgcc.a(_si_to_df.o)
 .debug_aranges
                0x00000748       0x20 c:/altera/13.0sp1/nios2eds/bin/gnu/h-i686-mingw32/bin/../lib/gcc/nios2-elf/4.1.2\libgcc.a(_df_to_si.o)
 .debug_aranges
                0x00000768       0x20 c:/altera/13.0sp1/nios2eds/bin/gnu/h-i686-mingw32/bin/../lib/gcc/nios2-elf/4.1.2\libgcc.a(_usi_to_df.o)
 .debug_aranges
                0x00000788       0x20 c:/altera/13.0sp1/nios2eds/bin/gnu/h-i686-mingw32/bin/../lib/gcc/nios2-elf/4.1.2\libgcc.a(_muldi3.o)
 .debug_aranges
                0x000007a8       0x20 c:/altera/13.0sp1/nios2eds/bin/gnu/h-i686-mingw32/bin/../lib/gcc/nios2-elf/4.1.2\libgcc.a(_clzsi2.o)
 .debug_aranges
                0x000007c8       0x20 c:/altera/13.0sp1/nios2eds/bin/gnu/h-i686-mingw32/bin/../lib/gcc/nios2-elf/4.1.2\libgcc.a(_pack_df.o)
 .debug_aranges
                0x000007e8       0x20 c:/altera/13.0sp1/nios2eds/bin/gnu/h-i686-mingw32/bin/../lib/gcc/nios2-elf/4.1.2\libgcc.a(_unpack_df.o)
 .debug_aranges
                0x00000808       0x20 c:/altera/13.0sp1/nios2eds/bin/gnu/h-i686-mingw32/bin/../lib/gcc/nios2-elf/4.1.2\libgcc.a(_fpcmp_parts_df.o)
 .debug_aranges
                0x00000828       0x20 ../lab5_bsp/\libucosii_bsp.a(alt_close.o)
 .debug_aranges
                0x00000848       0x20 ../lab5_bsp/\libucosii_bsp.a(alt_dcache_flush_all.o)
 .debug_aranges
                0x00000868       0x20 ../lab5_bsp/\libucosii_bsp.a(alt_dev.o)
 .debug_aranges
                0x00000888       0x20 ../lab5_bsp/\libucosii_bsp.a(alt_fstat.o)
 .debug_aranges
                0x000008a8       0x20 ../lab5_bsp/\libucosii_bsp.a(alt_iic.o)
 .debug_aranges
                0x000008c8       0x20 ../lab5_bsp/\libucosii_bsp.a(alt_iic_isr_register.o)
 .debug_aranges
                0x000008e8       0x30 ../lab5_bsp/\libucosii_bsp.a(alt_irq_entry.o)
 .debug_aranges
                0x00000918       0x28 ../lab5_bsp/\libucosii_bsp.a(alt_irq_handler.o)
 .debug_aranges
                0x00000940       0x20 ../lab5_bsp/\libucosii_bsp.a(alt_isatty.o)
 .debug_aranges
                0x00000960       0x20 ../lab5_bsp/\libucosii_bsp.a(alt_load.o)
 .debug_aranges
                0x00000980       0x20 ../lab5_bsp/\libucosii_bsp.a(alt_lseek.o)
 .debug_aranges
                0x000009a0       0x20 ../lab5_bsp/\libucosii_bsp.a(alt_main.o)
 .debug_aranges
                0x000009c0       0x20 ../lab5_bsp/\libucosii_bsp.a(alt_read.o)
 .debug_aranges
                0x000009e0       0x20 ../lab5_bsp/\libucosii_bsp.a(alt_release_fd.o)
 .debug_aranges
                0x00000a00       0x20 ../lab5_bsp/\libucosii_bsp.a(alt_sbrk.o)
 .debug_aranges
                0x00000a20       0x20 ../lab5_bsp/\libucosii_bsp.a(alt_tick.o)
 .debug_aranges
                0x00000a40       0x20 ../lab5_bsp/\libucosii_bsp.a(alt_write.o)
 .debug_aranges
                0x00000a60       0x20 ../lab5_bsp/\libucosii_bsp.a(alt_env_lock.o)
 .debug_aranges
                0x00000a80       0x20 ../lab5_bsp/\libucosii_bsp.a(alt_malloc_lock.o)
 .debug_aranges
                0x00000aa0       0x20 ../lab5_bsp/\libucosii_bsp.a(os_core.o)
 .debug_aranges
                0x00000ac0       0x20 ../lab5_bsp/\libucosii_bsp.a(os_dbg.o)
 .debug_aranges
                0x00000ae0       0x20 ../lab5_bsp/\libucosii_bsp.a(os_flag.o)
 .debug_aranges
                0x00000b00       0x20 ../lab5_bsp/\libucosii_bsp.a(os_mem.o)
 .debug_aranges
                0x00000b20       0x20 ../lab5_bsp/\libucosii_bsp.a(os_q.o)
 .debug_aranges
                0x00000b40       0x20 ../lab5_bsp/\libucosii_bsp.a(os_sem.o)
 .debug_aranges
                0x00000b60       0x20 ../lab5_bsp/\libucosii_bsp.a(os_task.o)
 .debug_aranges
                0x00000b80       0x20 ../lab5_bsp/\libucosii_bsp.a(os_time.o)
 .debug_aranges
                0x00000ba0       0x20 ../lab5_bsp/\libucosii_bsp.a(alt_sys_init.o)
 .debug_aranges
                0x00000bc0       0x20 ../lab5_bsp/\libucosii_bsp.a(altera_avalon_jtag_uart_fd.o)
 .debug_aranges
                0x00000be0       0x20 ../lab5_bsp/\libucosii_bsp.a(altera_avalon_jtag_uart_init.o)
 .debug_aranges
                0x00000c00       0x20 ../lab5_bsp/\libucosii_bsp.a(altera_avalon_jtag_uart_ioctl.o)
 .debug_aranges
                0x00000c20       0x20 ../lab5_bsp/\libucosii_bsp.a(altera_avalon_jtag_uart_read.o)
 .debug_aranges
                0x00000c40       0x20 ../lab5_bsp/\libucosii_bsp.a(altera_avalon_jtag_uart_write.o)
 .debug_aranges
                0x00000c60       0x20 ../lab5_bsp/\libucosii_bsp.a(altera_avalon_timer_sc.o)
 .debug_aranges
                0x00000c80       0x20 ../lab5_bsp/\libucosii_bsp.a(alt_alarm_start.o)
 .debug_aranges
                0x00000ca0       0x20 ../lab5_bsp/\libucosii_bsp.a(alt_dev_llist_insert.o)
 .debug_aranges
                0x00000cc0       0x20 ../lab5_bsp/\libucosii_bsp.a(alt_do_ctors.o)
 .debug_aranges
                0x00000ce0       0x20 ../lab5_bsp/\libucosii_bsp.a(alt_do_dtors.o)
 .debug_aranges
                0x00000d00       0x38 ../lab5_bsp/\libucosii_bsp.a(alt_exception_entry.o)
 .debug_aranges
                0x00000d38       0x20 ../lab5_bsp/\libucosii_bsp.a(alt_icache_flush_all.o)
 .debug_aranges
                0x00000d58       0x20 ../lab5_bsp/\libucosii_bsp.a(alt_io_redirect.o)
 .debug_aranges
                0x00000d78       0x20 ../lab5_bsp/\libucosii_bsp.a(alt_open.o)
 .debug_aranges
                0x00000d98       0x20 ../lab5_bsp/\libucosii_bsp.a(altera_nios2_qsys_irq.o)
 .debug_aranges
                0x00000db8       0x20 ../lab5_bsp/\libucosii_bsp.a(os_cpu_a.o)
 .debug_aranges
                0x00000dd8       0x20 ../lab5_bsp/\libucosii_bsp.a(os_cpu_c.o)
 .debug_aranges
                0x00000df8       0x20 ../lab5_bsp/\libucosii_bsp.a(alt_find_dev.o)
 .debug_aranges
                0x00000e18       0x20 ../lab5_bsp/\libucosii_bsp.a(alt_find_file.o)
 .debug_aranges
                0x00000e38       0x20 ../lab5_bsp/\libucosii_bsp.a(alt_get_fd.o)
 .debug_aranges
                0x00000e58       0x20 ../lab5_bsp/\libucosii_bsp.a(alt_icache_flush.o)
 .debug_aranges
                0x00000e78       0x20 c:/altera/13.0sp1/nios2eds/bin/gnu/h-i686-mingw32/bin/../lib/gcc/nios2-elf/4.1.2/../../../../nios2-elf/lib\libc.a(lib_a-atexit.o)
 .debug_aranges
                0x00000e98       0x20 c:/altera/13.0sp1/nios2eds/bin/gnu/h-i686-mingw32/bin/../lib/gcc/nios2-elf/4.1.2/../../../../nios2-elf/lib\libc.a(lib_a-exit.o)
 .debug_aranges
                0x00000eb8       0x20 c:/altera/13.0sp1/nios2eds/bin/gnu/h-i686-mingw32/bin/../lib/gcc/nios2-elf/4.1.2/../../../../nios2-elf/lib\libc.a(lib_a-memcmp.o)
 .debug_aranges
                0x00000ed8       0x20 c:/altera/13.0sp1/nios2eds/bin/gnu/h-i686-mingw32/bin/../lib/gcc/nios2-elf/4.1.2/../../../../nios2-elf/lib\libc.a(lib_a-__atexit.o)
 .debug_aranges
                0x00000ef8       0x20 c:/altera/13.0sp1/nios2eds/bin/gnu/h-i686-mingw32/bin/../lib/gcc/nios2-elf/4.1.2/../../../../nios2-elf/lib\libc.a(lib_a-__call_atexit.o)
 .debug_aranges
                0x00000f18       0x20 c:/altera/13.0sp1/nios2eds/bin/gnu/h-i686-mingw32/bin/../lib/gcc/nios2-elf/4.1.2\libgcc.a(_fixunsdfsi.o)
 .debug_aranges
                0x00000f38       0x20 ../lab5_bsp/\libucosii_bsp.a(alt_exit.o)

.debug_pubnames
                0x00000000     0x2ad2
 *(.debug_pubnames)
 .debug_pubnames
                0x00000000      0x14b obj/default/drivers/drivers.o
 .debug_pubnames
                0x0000014b       0x24 obj/default/fonts/tahomabold_20.o
 .debug_pubnames
                0x0000016f       0x24 obj/default/fonts/tahomabold_32.o
 .debug_pubnames
                0x00000193       0x43 obj/default/frame.o
 .debug_pubnames
                0x000001d6       0x9d obj/default/graphic_lib/draw_gimps.o
 .debug_pubnames
                0x00000273       0xc0 obj/default/graphic_lib/gimp_bmp.o
 .debug_pubnames
                0x00000333      0x2a7 obj/default/graphic_lib/simple_graphics.o
 .debug_pubnames
                0x000005da       0xc4 obj/default/graphic_lib/simple_text.o
 .debug_pubnames
                0x0000069e      0x12d obj/default/hello_ucosii.o
 .debug_pubnames
                0x000007cb       0x20 obj/default/imagenes/back_down.o
 .debug_pubnames
                0x000007eb       0x1e obj/default/imagenes/back_up.o
 .debug_pubnames
                0x00000809       0x20 obj/default/imagenes/ford_down.o
 .debug_pubnames
                0x00000829       0x1e obj/default/imagenes/ford_up.o
 .debug_pubnames
                0x00000847       0x21 obj/default/imagenes/pause_down.o
 .debug_pubnames
                0x00000868       0x1f obj/default/imagenes/pause_up.o
 .debug_pubnames
                0x00000887       0x20 obj/default/imagenes/play_down.o
 .debug_pubnames
                0x000008a7       0x1e obj/default/imagenes/play_up.o
 .debug_pubnames
                0x000008c5       0x20 obj/default/imagenes/stop_down.o
 .debug_pubnames
                0x000008e5       0x1e obj/default/imagenes/stop_up.o
 .debug_pubnames
                0x00000903       0x29 obj/default/song/song.o
 .debug_pubnames
                0x0000092c       0x45 obj/default/student_code/student_code.o
 .debug_pubnames
                0x00000971      0x11b obj/default/vip_fr.o
 .debug_pubnames
                0x00000a8c       0x20 c:/altera/13.0sp1/nios2eds/bin/gnu/h-i686-mingw32/bin/../lib/gcc/nios2-elf/4.1.2\libgcc.a(_sf_to_si.o)
 .debug_pubnames
                0x00000aac       0x48 c:/altera/13.0sp1/nios2eds/bin/gnu/h-i686-mingw32/bin/../lib/gcc/nios2-elf/4.1.2\libgcc.a(lib2-divmod.o)
 .debug_pubnames
                0x00000af4       0x21 c:/altera/13.0sp1/nios2eds/bin/gnu/h-i686-mingw32/bin/../lib/gcc/nios2-elf/4.1.2\libgcc.a(_unpack_sf.o)
 .debug_pubnames
                0x00000b15       0x26 c:/altera/13.0sp1/nios2eds/bin/gnu/h-i686-mingw32/bin/../lib/gcc/nios2-elf/4.1.2/../../../../nios2-elf/lib\libc.a(lib_a-malloc.o)
 .debug_pubnames
                0x00000b3b       0xce c:/altera/13.0sp1/nios2eds/bin/gnu/h-i686-mingw32/bin/../lib/gcc/nios2-elf/4.1.2/../../../../nios2-elf/lib\libc.a(lib_a-mallocr.o)
 .debug_pubnames
                0x00000c09       0x1d c:/altera/13.0sp1/nios2eds/bin/gnu/h-i686-mingw32/bin/../lib/gcc/nios2-elf/4.1.2/../../../../nios2-elf/lib\libc.a(lib_a-memcpy.o)
 .debug_pubnames
                0x00000c26       0x1d c:/altera/13.0sp1/nios2eds/bin/gnu/h-i686-mingw32/bin/../lib/gcc/nios2-elf/4.1.2/../../../../nios2-elf/lib\libc.a(lib_a-memset.o)
 .debug_pubnames
                0x00000c43       0x2b c:/altera/13.0sp1/nios2eds/bin/gnu/h-i686-mingw32/bin/../lib/gcc/nios2-elf/4.1.2/../../../../nios2-elf/lib\libc.a(lib_a-printf.o)
 .debug_pubnames
                0x00000c6e       0x1e c:/altera/13.0sp1/nios2eds/bin/gnu/h-i686-mingw32/bin/../lib/gcc/nios2-elf/4.1.2/../../../../nios2-elf/lib\libc.a(lib_a-sbrkr.o)
 .debug_pubnames
                0x00000c8c       0x1d c:/altera/13.0sp1/nios2eds/bin/gnu/h-i686-mingw32/bin/../lib/gcc/nios2-elf/4.1.2/../../../../nios2-elf/lib\libc.a(lib_a-strcpy.o)
 .debug_pubnames
                0x00000ca9       0x1d c:/altera/13.0sp1/nios2eds/bin/gnu/h-i686-mingw32/bin/../lib/gcc/nios2-elf/4.1.2/../../../../nios2-elf/lib\libc.a(lib_a-strlen.o)
 .debug_pubnames
                0x00000cc6       0x45 c:/altera/13.0sp1/nios2eds/bin/gnu/h-i686-mingw32/bin/../lib/gcc/nios2-elf/4.1.2/../../../../nios2-elf/lib\libc.a(lib_a-vfprintf.o)
 .debug_pubnames
                0x00000d0b       0x22 c:/altera/13.0sp1/nios2eds/bin/gnu/h-i686-mingw32/bin/../lib/gcc/nios2-elf/4.1.2/../../../../nios2-elf/lib\libc.a(lib_a-wsetup.o)
 .debug_pubnames
                0x00000d2d       0x1e c:/altera/13.0sp1/nios2eds/bin/gnu/h-i686-mingw32/bin/../lib/gcc/nios2-elf/4.1.2/../../../../nios2-elf/lib\libc.a(lib_a-dtoa.o)
 .debug_pubnames
                0x00000d4b       0x2b c:/altera/13.0sp1/nios2eds/bin/gnu/h-i686-mingw32/bin/../lib/gcc/nios2-elf/4.1.2/../../../../nios2-elf/lib\libc.a(lib_a-fflush.o)
 .debug_pubnames
                0x00000d76       0xdb c:/altera/13.0sp1/nios2eds/bin/gnu/h-i686-mingw32/bin/../lib/gcc/nios2-elf/4.1.2/../../../../nios2-elf/lib\libc.a(lib_a-findfp.o)
 .debug_pubnames
                0x00000e51       0x31 c:/altera/13.0sp1/nios2eds/bin/gnu/h-i686-mingw32/bin/../lib/gcc/nios2-elf/4.1.2/../../../../nios2-elf/lib\libc.a(lib_a-freer.o)
 .debug_pubnames
                0x00000e82       0x23 c:/altera/13.0sp1/nios2eds/bin/gnu/h-i686-mingw32/bin/../lib/gcc/nios2-elf/4.1.2/../../../../nios2-elf/lib\libc.a(lib_a-fvwrite.o)
 .debug_pubnames
                0x00000ea5       0x2e c:/altera/13.0sp1/nios2eds/bin/gnu/h-i686-mingw32/bin/../lib/gcc/nios2-elf/4.1.2/../../../../nios2-elf/lib\libc.a(lib_a-fwalk.o)
 .debug_pubnames
                0x00000ed3       0x39 c:/altera/13.0sp1/nios2eds/bin/gnu/h-i686-mingw32/bin/../lib/gcc/nios2-elf/4.1.2/../../../../nios2-elf/lib\libc.a(lib_a-impure.o)
 .debug_pubnames
                0x00000f0c       0x1c c:/altera/13.0sp1/nios2eds/bin/gnu/h-i686-mingw32/bin/../lib/gcc/nios2-elf/4.1.2/../../../../nios2-elf/lib\libc.a(lib_a-int_errno.o)
 .debug_pubnames
                0x00000f28       0xc3 c:/altera/13.0sp1/nios2eds/bin/gnu/h-i686-mingw32/bin/../lib/gcc/nios2-elf/4.1.2/../../../../nios2-elf/lib\libc.a(lib_a-locale.o)
 .debug_pubnames
                0x00000feb       0x23 c:/altera/13.0sp1/nios2eds/bin/gnu/h-i686-mingw32/bin/../lib/gcc/nios2-elf/4.1.2/../../../../nios2-elf/lib\libc.a(lib_a-makebuf.o)
 .debug_pubnames
                0x0000100e       0x1d c:/altera/13.0sp1/nios2eds/bin/gnu/h-i686-mingw32/bin/../lib/gcc/nios2-elf/4.1.2/../../../../nios2-elf/lib\libc.a(lib_a-memchr.o)
 .debug_pubnames
                0x0000102b       0x1e c:/altera/13.0sp1/nios2eds/bin/gnu/h-i686-mingw32/bin/../lib/gcc/nios2-elf/4.1.2/../../../../nios2-elf/lib\libc.a(lib_a-memmove.o)
 .debug_pubnames
                0x00001049      0x13a c:/altera/13.0sp1/nios2eds/bin/gnu/h-i686-mingw32/bin/../lib/gcc/nios2-elf/4.1.2/../../../../nios2-elf/lib\libc.a(lib_a-mprec.o)
 .debug_pubnames
                0x00001183       0x21 c:/altera/13.0sp1/nios2eds/bin/gnu/h-i686-mingw32/bin/../lib/gcc/nios2-elf/4.1.2/../../../../nios2-elf/lib\libc.a(lib_a-reallocr.o)
 .debug_pubnames
                0x000011a4       0x1f c:/altera/13.0sp1/nios2eds/bin/gnu/h-i686-mingw32/bin/../lib/gcc/nios2-elf/4.1.2/../../../../nios2-elf/lib\libc.a(lib_a-s_isinfd.o)
 .debug_pubnames
                0x000011c3       0x1f c:/altera/13.0sp1/nios2eds/bin/gnu/h-i686-mingw32/bin/../lib/gcc/nios2-elf/4.1.2/../../../../nios2-elf/lib\libc.a(lib_a-s_isnand.o)
 .debug_pubnames
                0x000011e2       0x44 c:/altera/13.0sp1/nios2eds/bin/gnu/h-i686-mingw32/bin/../lib/gcc/nios2-elf/4.1.2/../../../../nios2-elf/lib\libc.a(lib_a-stdio.o)
 .debug_pubnames
                0x00001226       0x1d c:/altera/13.0sp1/nios2eds/bin/gnu/h-i686-mingw32/bin/../lib/gcc/nios2-elf/4.1.2/../../../../nios2-elf/lib\libc.a(lib_a-strcmp.o)
 .debug_pubnames
                0x00001243       0x1f c:/altera/13.0sp1/nios2eds/bin/gnu/h-i686-mingw32/bin/../lib/gcc/nios2-elf/4.1.2/../../../../nios2-elf/lib\libc.a(lib_a-writer.o)
 .debug_pubnames
                0x00001262       0x20 c:/altera/13.0sp1/nios2eds/bin/gnu/h-i686-mingw32/bin/../lib/gcc/nios2-elf/4.1.2/../../../../nios2-elf/lib\libc.a(lib_a-callocr.o)
 .debug_pubnames
                0x00001282       0x1f c:/altera/13.0sp1/nios2eds/bin/gnu/h-i686-mingw32/bin/../lib/gcc/nios2-elf/4.1.2/../../../../nios2-elf/lib\libc.a(lib_a-closer.o)
 .debug_pubnames
                0x000012a1       0x2b c:/altera/13.0sp1/nios2eds/bin/gnu/h-i686-mingw32/bin/../lib/gcc/nios2-elf/4.1.2/../../../../nios2-elf/lib\libc.a(lib_a-fclose.o)
 .debug_pubnames
                0x000012cc       0x1f c:/altera/13.0sp1/nios2eds/bin/gnu/h-i686-mingw32/bin/../lib/gcc/nios2-elf/4.1.2/../../../../nios2-elf/lib\libc.a(lib_a-fstatr.o)
 .debug_pubnames
                0x000012eb       0x20 c:/altera/13.0sp1/nios2eds/bin/gnu/h-i686-mingw32/bin/../lib/gcc/nios2-elf/4.1.2/../../../../nios2-elf/lib\libc.a(lib_a-isattyr.o)
 .debug_pubnames
                0x0000130b       0x1f c:/altera/13.0sp1/nios2eds/bin/gnu/h-i686-mingw32/bin/../lib/gcc/nios2-elf/4.1.2/../../../../nios2-elf/lib\libc.a(lib_a-lseekr.o)
 .debug_pubnames
                0x0000132a       0x1e c:/altera/13.0sp1/nios2eds/bin/gnu/h-i686-mingw32/bin/../lib/gcc/nios2-elf/4.1.2/../../../../nios2-elf/lib\libc.a(lib_a-readr.o)
 .debug_pubnames
                0x00001348       0x20 c:/altera/13.0sp1/nios2eds/bin/gnu/h-i686-mingw32/bin/../lib/gcc/nios2-elf/4.1.2\libgcc.a(_udivdi3.o)
 .debug_pubnames
                0x00001368       0x20 c:/altera/13.0sp1/nios2eds/bin/gnu/h-i686-mingw32/bin/../lib/gcc/nios2-elf/4.1.2\libgcc.a(_umoddi3.o)
 .debug_pubnames
                0x00001388       0x2c c:/altera/13.0sp1/nios2eds/bin/gnu/h-i686-mingw32/bin/../lib/gcc/nios2-elf/4.1.2\libgcc.a(_addsub_df.o)
 .debug_pubnames
                0x000013b4       0x1f c:/altera/13.0sp1/nios2eds/bin/gnu/h-i686-mingw32/bin/../lib/gcc/nios2-elf/4.1.2\libgcc.a(_mul_df.o)
 .debug_pubnames
                0x000013d3       0x1f c:/altera/13.0sp1/nios2eds/bin/gnu/h-i686-mingw32/bin/../lib/gcc/nios2-elf/4.1.2\libgcc.a(_div_df.o)
 .debug_pubnames
                0x000013f2       0x1e c:/altera/13.0sp1/nios2eds/bin/gnu/h-i686-mingw32/bin/../lib/gcc/nios2-elf/4.1.2\libgcc.a(_eq_df.o)
 .debug_pubnames
                0x00001410       0x1e c:/altera/13.0sp1/nios2eds/bin/gnu/h-i686-mingw32/bin/../lib/gcc/nios2-elf/4.1.2\libgcc.a(_ne_df.o)
 .debug_pubnames
                0x0000142e       0x1e c:/altera/13.0sp1/nios2eds/bin/gnu/h-i686-mingw32/bin/../lib/gcc/nios2-elf/4.1.2\libgcc.a(_gt_df.o)
 .debug_pubnames
                0x0000144c       0x1e c:/altera/13.0sp1/nios2eds/bin/gnu/h-i686-mingw32/bin/../lib/gcc/nios2-elf/4.1.2\libgcc.a(_ge_df.o)
 .debug_pubnames
                0x0000146a       0x1e c:/altera/13.0sp1/nios2eds/bin/gnu/h-i686-mingw32/bin/../lib/gcc/nios2-elf/4.1.2\libgcc.a(_lt_df.o)
 .debug_pubnames
                0x00001488       0x22 c:/altera/13.0sp1/nios2eds/bin/gnu/h-i686-mingw32/bin/../lib/gcc/nios2-elf/4.1.2\libgcc.a(_si_to_df.o)
 .debug_pubnames
                0x000014aa       0x20 c:/altera/13.0sp1/nios2eds/bin/gnu/h-i686-mingw32/bin/../lib/gcc/nios2-elf/4.1.2\libgcc.a(_df_to_si.o)
 .debug_pubnames
                0x000014ca       0x22 c:/altera/13.0sp1/nios2eds/bin/gnu/h-i686-mingw32/bin/../lib/gcc/nios2-elf/4.1.2\libgcc.a(_thenan_df.o)
 .debug_pubnames
                0x000014ec       0x24 c:/altera/13.0sp1/nios2eds/bin/gnu/h-i686-mingw32/bin/../lib/gcc/nios2-elf/4.1.2\libgcc.a(_usi_to_df.o)
 .debug_pubnames
                0x00001510       0x1f c:/altera/13.0sp1/nios2eds/bin/gnu/h-i686-mingw32/bin/../lib/gcc/nios2-elf/4.1.2\libgcc.a(_muldi3.o)
 .debug_pubnames
                0x0000152f       0x20 c:/altera/13.0sp1/nios2eds/bin/gnu/h-i686-mingw32/bin/../lib/gcc/nios2-elf/4.1.2\libgcc.a(_clz.o)
 .debug_pubnames
                0x0000154f       0x1f c:/altera/13.0sp1/nios2eds/bin/gnu/h-i686-mingw32/bin/../lib/gcc/nios2-elf/4.1.2\libgcc.a(_clzsi2.o)
 .debug_pubnames
                0x0000156e       0x1f c:/altera/13.0sp1/nios2eds/bin/gnu/h-i686-mingw32/bin/../lib/gcc/nios2-elf/4.1.2\libgcc.a(_pack_df.o)
 .debug_pubnames
                0x0000158d       0x21 c:/altera/13.0sp1/nios2eds/bin/gnu/h-i686-mingw32/bin/../lib/gcc/nios2-elf/4.1.2\libgcc.a(_unpack_df.o)
 .debug_pubnames
                0x000015ae       0x26 c:/altera/13.0sp1/nios2eds/bin/gnu/h-i686-mingw32/bin/../lib/gcc/nios2-elf/4.1.2\libgcc.a(_fpcmp_parts_df.o)
 .debug_pubnames
                0x000015d4       0x1c ../lab5_bsp/\libucosii_bsp.a(alt_close.o)
 .debug_pubnames
                0x000015f0       0x2b ../lab5_bsp/\libucosii_bsp.a(alt_dcache_flush_all.o)
 .debug_pubnames
                0x0000161b       0x78 ../lab5_bsp/\libucosii_bsp.a(alt_dev.o)
 .debug_pubnames
                0x00001693       0x20 ../lab5_bsp/\libucosii_bsp.a(alt_errno.o)
 .debug_pubnames
                0x000016b3       0x1c ../lab5_bsp/\libucosii_bsp.a(alt_fstat.o)
 .debug_pubnames
                0x000016cf       0x6e ../lab5_bsp/\libucosii_bsp.a(alt_iic.o)
 .debug_pubnames
                0x0000173d       0x2b ../lab5_bsp/\libucosii_bsp.a(alt_iic_isr_register.o)
 .debug_pubnames
                0x00001768       0x32 ../lab5_bsp/\libucosii_bsp.a(alt_irq_handler.o)
 .debug_pubnames
                0x0000179a       0x3b ../lab5_bsp/\libucosii_bsp.a(alt_irq_vars.o)
 .debug_pubnames
                0x000017d5       0x1d ../lab5_bsp/\libucosii_bsp.a(alt_isatty.o)
 .debug_pubnames
                0x000017f2       0x1f ../lab5_bsp/\libucosii_bsp.a(alt_load.o)
 .debug_pubnames
                0x00001811       0x1c ../lab5_bsp/\libucosii_bsp.a(alt_lseek.o)
 .debug_pubnames
                0x0000182d       0x46 ../lab5_bsp/\libucosii_bsp.a(alt_main.o)
 .debug_pubnames
                0x00001873       0x1b ../lab5_bsp/\libucosii_bsp.a(alt_read.o)
 .debug_pubnames
                0x0000188e       0x25 ../lab5_bsp/\libucosii_bsp.a(alt_release_fd.o)
 .debug_pubnames
                0x000018b3       0x1b ../lab5_bsp/\libucosii_bsp.a(alt_sbrk.o)
 .debug_pubnames
                0x000018ce       0x68 ../lab5_bsp/\libucosii_bsp.a(alt_tick.o)
 .debug_pubnames
                0x00001936       0x1c ../lab5_bsp/\libucosii_bsp.a(alt_write.o)
 .debug_pubnames
                0x00001952       0x41 ../lab5_bsp/\libucosii_bsp.a(alt_env_lock.o)
 .debug_pubnames
                0x00001993       0x48 ../lab5_bsp/\libucosii_bsp.a(alt_malloc_lock.o)
 .debug_pubnames
                0x000019db      0x3f8 ../lab5_bsp/\libucosii_bsp.a(os_core.o)
 .debug_pubnames
                0x00001dd3      0x3c5 ../lab5_bsp/\libucosii_bsp.a(os_dbg.o)
 .debug_pubnames
                0x00002198       0xd0 ../lab5_bsp/\libucosii_bsp.a(os_flag.o)
 .debug_pubnames
                0x00002268       0x7c ../lab5_bsp/\libucosii_bsp.a(os_mem.o)
 .debug_pubnames
                0x000022e4       0xa9 ../lab5_bsp/\libucosii_bsp.a(os_q.o)
 .debug_pubnames
                0x0000238d       0x8a ../lab5_bsp/\libucosii_bsp.a(os_sem.o)
 .debug_pubnames
                0x00002417       0xe5 ../lab5_bsp/\libucosii_bsp.a(os_task.o)
 .debug_pubnames
                0x000024fc       0x62 ../lab5_bsp/\libucosii_bsp.a(os_time.o)
 .debug_pubnames
                0x0000255e       0x34 ../lab5_bsp/\libucosii_bsp.a(alt_sys_init.o)
 .debug_pubnames
                0x00002592       0xa5 ../lab5_bsp/\libucosii_bsp.a(altera_avalon_jtag_uart_fd.o)
 .debug_pubnames
                0x00002637       0x55 ../lab5_bsp/\libucosii_bsp.a(altera_avalon_jtag_uart_init.o)
 .debug_pubnames
                0x0000268c       0x34 ../lab5_bsp/\libucosii_bsp.a(altera_avalon_jtag_uart_ioctl.o)
 .debug_pubnames
                0x000026c0       0x33 ../lab5_bsp/\libucosii_bsp.a(altera_avalon_jtag_uart_read.o)
 .debug_pubnames
                0x000026f3       0x34 ../lab5_bsp/\libucosii_bsp.a(altera_avalon_jtag_uart_write.o)
 .debug_pubnames
                0x00002727       0x2f ../lab5_bsp/\libucosii_bsp.a(altera_avalon_timer_sc.o)
 .debug_pubnames
                0x00002756       0x26 ../lab5_bsp/\libucosii_bsp.a(alt_alarm_start.o)
 .debug_pubnames
                0x0000277c       0x2b ../lab5_bsp/\libucosii_bsp.a(alt_dev_llist_insert.o)
 .debug_pubnames
                0x000027a7       0x20 ../lab5_bsp/\libucosii_bsp.a(alt_do_ctors.o)
 .debug_pubnames
                0x000027c7       0x20 ../lab5_bsp/\libucosii_bsp.a(alt_do_dtors.o)
 .debug_pubnames
                0x000027e7       0x2b ../lab5_bsp/\libucosii_bsp.a(alt_icache_flush_all.o)
 .debug_pubnames
                0x00002812       0x26 ../lab5_bsp/\libucosii_bsp.a(alt_io_redirect.o)
 .debug_pubnames
                0x00002838       0x1b ../lab5_bsp/\libucosii_bsp.a(alt_open.o)
 .debug_pubnames
                0x00002853       0x31 ../lab5_bsp/\libucosii_bsp.a(altera_nios2_qsys_irq.o)
 .debug_pubnames
                0x00002884       0xcd ../lab5_bsp/\libucosii_bsp.a(os_cpu_c.o)
 .debug_pubnames
                0x00002951       0x23 ../lab5_bsp/\libucosii_bsp.a(alt_find_dev.o)
 .debug_pubnames
                0x00002974       0x24 ../lab5_bsp/\libucosii_bsp.a(alt_find_file.o)
 .debug_pubnames
                0x00002998       0x21 ../lab5_bsp/\libucosii_bsp.a(alt_get_fd.o)
 .debug_pubnames
                0x000029b9       0x27 ../lab5_bsp/\libucosii_bsp.a(alt_icache_flush.o)
 .debug_pubnames
                0x000029e0       0x2a c:/altera/13.0sp1/nios2eds/bin/gnu/h-i686-mingw32/bin/../lib/gcc/nios2-elf/4.1.2/../../../../nios2-elf/lib\libc.a(lib_a-atexit.o)
 .debug_pubnames
                0x00002a0a       0x1b c:/altera/13.0sp1/nios2eds/bin/gnu/h-i686-mingw32/bin/../lib/gcc/nios2-elf/4.1.2/../../../../nios2-elf/lib\libc.a(lib_a-exit.o)
 .debug_pubnames
                0x00002a25       0x1d c:/altera/13.0sp1/nios2eds/bin/gnu/h-i686-mingw32/bin/../lib/gcc/nios2-elf/4.1.2/../../../../nios2-elf/lib\libc.a(lib_a-memcmp.o)
 .debug_pubnames
                0x00002a42       0x2a c:/altera/13.0sp1/nios2eds/bin/gnu/h-i686-mingw32/bin/../lib/gcc/nios2-elf/4.1.2/../../../../nios2-elf/lib\libc.a(lib_a-__atexit.o)
 .debug_pubnames
                0x00002a6c       0x27 c:/altera/13.0sp1/nios2eds/bin/gnu/h-i686-mingw32/bin/../lib/gcc/nios2-elf/4.1.2/../../../../nios2-elf/lib\libc.a(lib_a-__call_atexit.o)
 .debug_pubnames
                0x00002a93       0x23 c:/altera/13.0sp1/nios2eds/bin/gnu/h-i686-mingw32/bin/../lib/gcc/nios2-elf/4.1.2\libgcc.a(_fixunsdfsi.o)
 .debug_pubnames
                0x00002ab6       0x1c ../lab5_bsp/\libucosii_bsp.a(alt_exit.o)

.debug_info     0x00000000    0x2f96d
 *(.debug_info .gnu.linkonce.wi.*)
 .debug_info    0x00000000       0x54 ../lab5_bsp//obj/HAL/src/crt0.o
 .debug_info    0x00000054      0x37b obj/default/drivers/drivers.o
 .debug_info    0x000003cf      0xa60 obj/default/fonts/tahomabold_20.o
 .debug_info    0x00000e2f      0xadd obj/default/fonts/tahomabold_32.o
 .debug_info    0x0000190c      0x163 obj/default/frame.o
 .debug_info    0x00001a6f      0x6e1 obj/default/graphic_lib/draw_gimps.o
 .debug_info    0x00002150      0x66f obj/default/graphic_lib/gimp_bmp.o
 .debug_info    0x000027bf     0x1a0d obj/default/graphic_lib/simple_graphics.o
 .debug_info    0x000041cc      0xa65 obj/default/graphic_lib/simple_text.o
 .debug_info    0x00004c31      0x5c2 obj/default/hello_ucosii.o
 .debug_info    0x000051f3       0xa5 obj/default/imagenes/back_down.o
 .debug_info    0x00005298       0xa5 obj/default/imagenes/back_up.o
 .debug_info    0x0000533d       0xa5 obj/default/imagenes/ford_down.o
 .debug_info    0x000053e2       0xa5 obj/default/imagenes/ford_up.o
 .debug_info    0x00005487       0xa5 obj/default/imagenes/pause_down.o
 .debug_info    0x0000552c       0xa5 obj/default/imagenes/pause_up.o
 .debug_info    0x000055d1       0xa5 obj/default/imagenes/play_down.o
 .debug_info    0x00005676       0xa5 obj/default/imagenes/play_up.o
 .debug_info    0x0000571b       0xa5 obj/default/imagenes/stop_down.o
 .debug_info    0x000057c0       0xa5 obj/default/imagenes/stop_up.o
 .debug_info    0x00005865       0x7c obj/default/song/song.o
 .debug_info    0x000058e1       0xec obj/default/student_code/student_code.o
 .debug_info    0x000059cd      0x4f4 obj/default/vip_fr.o
 .debug_info    0x00005ec1      0x2c1 c:/altera/13.0sp1/nios2eds/bin/gnu/h-i686-mingw32/bin/../lib/gcc/nios2-elf/4.1.2\libgcc.a(_sf_to_si.o)
 .debug_info    0x00006182      0x21c c:/altera/13.0sp1/nios2eds/bin/gnu/h-i686-mingw32/bin/../lib/gcc/nios2-elf/4.1.2\libgcc.a(lib2-divmod.o)
 .debug_info    0x0000639e      0x25a c:/altera/13.0sp1/nios2eds/bin/gnu/h-i686-mingw32/bin/../lib/gcc/nios2-elf/4.1.2\libgcc.a(_unpack_sf.o)
 .debug_info    0x000065f8      0x96e c:/altera/13.0sp1/nios2eds/bin/gnu/h-i686-mingw32/bin/../lib/gcc/nios2-elf/4.1.2/../../../../nios2-elf/lib\libc.a(lib_a-malloc.o)
 .debug_info    0x00006f66      0xcd0 c:/altera/13.0sp1/nios2eds/bin/gnu/h-i686-mingw32/bin/../lib/gcc/nios2-elf/4.1.2/../../../../nios2-elf/lib\libc.a(lib_a-mallocr.o)
 .debug_info    0x00007c36      0x106 c:/altera/13.0sp1/nios2eds/bin/gnu/h-i686-mingw32/bin/../lib/gcc/nios2-elf/4.1.2/../../../../nios2-elf/lib\libc.a(lib_a-memcpy.o)
 .debug_info    0x00007d3c      0x113 c:/altera/13.0sp1/nios2eds/bin/gnu/h-i686-mingw32/bin/../lib/gcc/nios2-elf/4.1.2/../../../../nios2-elf/lib\libc.a(lib_a-memset.o)
 .debug_info    0x00007e4f      0x9d1 c:/altera/13.0sp1/nios2eds/bin/gnu/h-i686-mingw32/bin/../lib/gcc/nios2-elf/4.1.2/../../../../nios2-elf/lib\libc.a(lib_a-printf.o)
 .debug_info    0x00008820      0x962 c:/altera/13.0sp1/nios2eds/bin/gnu/h-i686-mingw32/bin/../lib/gcc/nios2-elf/4.1.2/../../../../nios2-elf/lib\libc.a(lib_a-sbrkr.o)
 .debug_info    0x00009182      0x110 c:/altera/13.0sp1/nios2eds/bin/gnu/h-i686-mingw32/bin/../lib/gcc/nios2-elf/4.1.2/../../../../nios2-elf/lib\libc.a(lib_a-strcpy.o)
 .debug_info    0x00009292       0xdb c:/altera/13.0sp1/nios2eds/bin/gnu/h-i686-mingw32/bin/../lib/gcc/nios2-elf/4.1.2/../../../../nios2-elf/lib\libc.a(lib_a-strlen.o)
 .debug_info    0x0000936d     0x10d5 c:/altera/13.0sp1/nios2eds/bin/gnu/h-i686-mingw32/bin/../lib/gcc/nios2-elf/4.1.2/../../../../nios2-elf/lib\libc.a(lib_a-vfprintf.o)
 .debug_info    0x0000a442      0x95d c:/altera/13.0sp1/nios2eds/bin/gnu/h-i686-mingw32/bin/../lib/gcc/nios2-elf/4.1.2/../../../../nios2-elf/lib\libc.a(lib_a-wsetup.o)
 .debug_info    0x0000ad9f      0xd6f c:/altera/13.0sp1/nios2eds/bin/gnu/h-i686-mingw32/bin/../lib/gcc/nios2-elf/4.1.2/../../../../nios2-elf/lib\libc.a(lib_a-dtoa.o)
 .debug_info    0x0000bb0e      0x9fe c:/altera/13.0sp1/nios2eds/bin/gnu/h-i686-mingw32/bin/../lib/gcc/nios2-elf/4.1.2/../../../../nios2-elf/lib\libc.a(lib_a-fflush.o)
 .debug_info    0x0000c50c      0xb72 c:/altera/13.0sp1/nios2eds/bin/gnu/h-i686-mingw32/bin/../lib/gcc/nios2-elf/4.1.2/../../../../nios2-elf/lib\libc.a(lib_a-findfp.o)
 .debug_info    0x0000d07e      0xbc9 c:/altera/13.0sp1/nios2eds/bin/gnu/h-i686-mingw32/bin/../lib/gcc/nios2-elf/4.1.2/../../../../nios2-elf/lib\libc.a(lib_a-freer.o)
 .debug_info    0x0000dc47      0xa88 c:/altera/13.0sp1/nios2eds/bin/gnu/h-i686-mingw32/bin/../lib/gcc/nios2-elf/4.1.2/../../../../nios2-elf/lib\libc.a(lib_a-fvwrite.o)
 .debug_info    0x0000e6cf      0xaed c:/altera/13.0sp1/nios2eds/bin/gnu/h-i686-mingw32/bin/../lib/gcc/nios2-elf/4.1.2/../../../../nios2-elf/lib\libc.a(lib_a-fwalk.o)
 .debug_info    0x0000f1bc      0x93d c:/altera/13.0sp1/nios2eds/bin/gnu/h-i686-mingw32/bin/../lib/gcc/nios2-elf/4.1.2/../../../../nios2-elf/lib\libc.a(lib_a-impure.o)
 .debug_info    0x0000faf9       0x8c c:/altera/13.0sp1/nios2eds/bin/gnu/h-i686-mingw32/bin/../lib/gcc/nios2-elf/4.1.2/../../../../nios2-elf/lib\libc.a(lib_a-int_errno.o)
 .debug_info    0x0000fb85      0xb97 c:/altera/13.0sp1/nios2eds/bin/gnu/h-i686-mingw32/bin/../lib/gcc/nios2-elf/4.1.2/../../../../nios2-elf/lib\libc.a(lib_a-locale.o)
 .debug_info    0x0001071c      0xb1a c:/altera/13.0sp1/nios2eds/bin/gnu/h-i686-mingw32/bin/../lib/gcc/nios2-elf/4.1.2/../../../../nios2-elf/lib\libc.a(lib_a-makebuf.o)
 .debug_info    0x00011236      0x138 c:/altera/13.0sp1/nios2eds/bin/gnu/h-i686-mingw32/bin/../lib/gcc/nios2-elf/4.1.2/../../../../nios2-elf/lib\libc.a(lib_a-memchr.o)
 .debug_info    0x0001136e      0x13e c:/altera/13.0sp1/nios2eds/bin/gnu/h-i686-mingw32/bin/../lib/gcc/nios2-elf/4.1.2/../../../../nios2-elf/lib\libc.a(lib_a-memmove.o)
 .debug_info    0x000114ac     0x1437 c:/altera/13.0sp1/nios2eds/bin/gnu/h-i686-mingw32/bin/../lib/gcc/nios2-elf/4.1.2/../../../../nios2-elf/lib\libc.a(lib_a-mprec.o)
 .debug_info    0x000128e3      0xbd7 c:/altera/13.0sp1/nios2eds/bin/gnu/h-i686-mingw32/bin/../lib/gcc/nios2-elf/4.1.2/../../../../nios2-elf/lib\libc.a(lib_a-reallocr.o)
 .debug_info    0x000134ba       0xd7 c:/altera/13.0sp1/nios2eds/bin/gnu/h-i686-mingw32/bin/../lib/gcc/nios2-elf/4.1.2/../../../../nios2-elf/lib\libc.a(lib_a-s_isinfd.o)
 .debug_info    0x00013591       0xd5 c:/altera/13.0sp1/nios2eds/bin/gnu/h-i686-mingw32/bin/../lib/gcc/nios2-elf/4.1.2/../../../../nios2-elf/lib\libc.a(lib_a-s_isnand.o)
 .debug_info    0x00013666      0xaac c:/altera/13.0sp1/nios2eds/bin/gnu/h-i686-mingw32/bin/../lib/gcc/nios2-elf/4.1.2/../../../../nios2-elf/lib\libc.a(lib_a-stdio.o)
 .debug_info    0x00014112       0xdd c:/altera/13.0sp1/nios2eds/bin/gnu/h-i686-mingw32/bin/../lib/gcc/nios2-elf/4.1.2/../../../../nios2-elf/lib\libc.a(lib_a-strcmp.o)
 .debug_info    0x000141ef      0x993 c:/altera/13.0sp1/nios2eds/bin/gnu/h-i686-mingw32/bin/../lib/gcc/nios2-elf/4.1.2/../../../../nios2-elf/lib\libc.a(lib_a-writer.o)
 .debug_info    0x00014b82      0xa1b c:/altera/13.0sp1/nios2eds/bin/gnu/h-i686-mingw32/bin/../lib/gcc/nios2-elf/4.1.2/../../../../nios2-elf/lib\libc.a(lib_a-callocr.o)
 .debug_info    0x0001559d      0x958 c:/altera/13.0sp1/nios2eds/bin/gnu/h-i686-mingw32/bin/../lib/gcc/nios2-elf/4.1.2/../../../../nios2-elf/lib\libc.a(lib_a-closer.o)
 .debug_info    0x00015ef5      0x994 c:/altera/13.0sp1/nios2eds/bin/gnu/h-i686-mingw32/bin/../lib/gcc/nios2-elf/4.1.2/../../../../nios2-elf/lib\libc.a(lib_a-fclose.o)
 .debug_info    0x00016889      0xafc c:/altera/13.0sp1/nios2eds/bin/gnu/h-i686-mingw32/bin/../lib/gcc/nios2-elf/4.1.2/../../../../nios2-elf/lib\libc.a(lib_a-fstatr.o)
 .debug_info    0x00017385      0x958 c:/altera/13.0sp1/nios2eds/bin/gnu/h-i686-mingw32/bin/../lib/gcc/nios2-elf/4.1.2/../../../../nios2-elf/lib\libc.a(lib_a-isattyr.o)
 .debug_info    0x00017cdd      0x981 c:/altera/13.0sp1/nios2eds/bin/gnu/h-i686-mingw32/bin/../lib/gcc/nios2-elf/4.1.2/../../../../nios2-elf/lib\libc.a(lib_a-lseekr.o)
 .debug_info    0x0001865e      0x98c c:/altera/13.0sp1/nios2eds/bin/gnu/h-i686-mingw32/bin/../lib/gcc/nios2-elf/4.1.2/../../../../nios2-elf/lib\libc.a(lib_a-readr.o)
 .debug_info    0x00018fea      0x724 c:/altera/13.0sp1/nios2eds/bin/gnu/h-i686-mingw32/bin/../lib/gcc/nios2-elf/4.1.2\libgcc.a(_udivdi3.o)
 .debug_info    0x0001970e      0x751 c:/altera/13.0sp1/nios2eds/bin/gnu/h-i686-mingw32/bin/../lib/gcc/nios2-elf/4.1.2\libgcc.a(_umoddi3.o)
 .debug_info    0x00019e5f      0x493 c:/altera/13.0sp1/nios2eds/bin/gnu/h-i686-mingw32/bin/../lib/gcc/nios2-elf/4.1.2\libgcc.a(_addsub_df.o)
 .debug_info    0x0001a2f2      0x488 c:/altera/13.0sp1/nios2eds/bin/gnu/h-i686-mingw32/bin/../lib/gcc/nios2-elf/4.1.2\libgcc.a(_mul_df.o)
 .debug_info    0x0001a77a      0x39b c:/altera/13.0sp1/nios2eds/bin/gnu/h-i686-mingw32/bin/../lib/gcc/nios2-elf/4.1.2\libgcc.a(_div_df.o)
 .debug_info    0x0001ab15      0x29d c:/altera/13.0sp1/nios2eds/bin/gnu/h-i686-mingw32/bin/../lib/gcc/nios2-elf/4.1.2\libgcc.a(_eq_df.o)
 .debug_info    0x0001adb2      0x29d c:/altera/13.0sp1/nios2eds/bin/gnu/h-i686-mingw32/bin/../lib/gcc/nios2-elf/4.1.2\libgcc.a(_ne_df.o)
 .debug_info    0x0001b04f      0x29d c:/altera/13.0sp1/nios2eds/bin/gnu/h-i686-mingw32/bin/../lib/gcc/nios2-elf/4.1.2\libgcc.a(_gt_df.o)
 .debug_info    0x0001b2ec      0x29d c:/altera/13.0sp1/nios2eds/bin/gnu/h-i686-mingw32/bin/../lib/gcc/nios2-elf/4.1.2\libgcc.a(_ge_df.o)
 .debug_info    0x0001b589      0x29d c:/altera/13.0sp1/nios2eds/bin/gnu/h-i686-mingw32/bin/../lib/gcc/nios2-elf/4.1.2\libgcc.a(_lt_df.o)
 .debug_info    0x0001b826      0x218 c:/altera/13.0sp1/nios2eds/bin/gnu/h-i686-mingw32/bin/../lib/gcc/nios2-elf/4.1.2\libgcc.a(_si_to_df.o)
 .debug_info    0x0001ba3e      0x2cd c:/altera/13.0sp1/nios2eds/bin/gnu/h-i686-mingw32/bin/../lib/gcc/nios2-elf/4.1.2\libgcc.a(_df_to_si.o)
 .debug_info    0x0001bd0b      0x164 c:/altera/13.0sp1/nios2eds/bin/gnu/h-i686-mingw32/bin/../lib/gcc/nios2-elf/4.1.2\libgcc.a(_thenan_df.o)
 .debug_info    0x0001be6f      0x213 c:/altera/13.0sp1/nios2eds/bin/gnu/h-i686-mingw32/bin/../lib/gcc/nios2-elf/4.1.2\libgcc.a(_usi_to_df.o)
 .debug_info    0x0001c082      0x215 c:/altera/13.0sp1/nios2eds/bin/gnu/h-i686-mingw32/bin/../lib/gcc/nios2-elf/4.1.2\libgcc.a(_muldi3.o)
 .debug_info    0x0001c297       0xc9 c:/altera/13.0sp1/nios2eds/bin/gnu/h-i686-mingw32/bin/../lib/gcc/nios2-elf/4.1.2\libgcc.a(_clz.o)
 .debug_info    0x0001c360      0x130 c:/altera/13.0sp1/nios2eds/bin/gnu/h-i686-mingw32/bin/../lib/gcc/nios2-elf/4.1.2\libgcc.a(_clzsi2.o)
 .debug_info    0x0001c490      0x2fc c:/altera/13.0sp1/nios2eds/bin/gnu/h-i686-mingw32/bin/../lib/gcc/nios2-elf/4.1.2\libgcc.a(_pack_df.o)
 .debug_info    0x0001c78c      0x268 c:/altera/13.0sp1/nios2eds/bin/gnu/h-i686-mingw32/bin/../lib/gcc/nios2-elf/4.1.2\libgcc.a(_unpack_df.o)
 .debug_info    0x0001c9f4      0x21b c:/altera/13.0sp1/nios2eds/bin/gnu/h-i686-mingw32/bin/../lib/gcc/nios2-elf/4.1.2\libgcc.a(_fpcmp_parts_df.o)
 .debug_info    0x0001cc0f      0x39c ../lab5_bsp/\libucosii_bsp.a(alt_close.o)
 .debug_info    0x0001cfab       0x8d ../lab5_bsp/\libucosii_bsp.a(alt_dcache_flush_all.o)
 .debug_info    0x0001d038      0x5d7 ../lab5_bsp/\libucosii_bsp.a(alt_dev.o)
 .debug_info    0x0001d60f       0xab ../lab5_bsp/\libucosii_bsp.a(alt_errno.o)
 .debug_info    0x0001d6ba      0x515 ../lab5_bsp/\libucosii_bsp.a(alt_fstat.o)
 .debug_info    0x0001dbcf      0x343 ../lab5_bsp/\libucosii_bsp.a(alt_iic.o)
 .debug_info    0x0001df12      0x1f6 ../lab5_bsp/\libucosii_bsp.a(alt_iic_isr_register.o)
 .debug_info    0x0001e108       0x5d ../lab5_bsp/\libucosii_bsp.a(alt_irq_entry.o)
 .debug_info    0x0001e165      0x198 ../lab5_bsp/\libucosii_bsp.a(alt_irq_handler.o)
 .debug_info    0x0001e2fd       0x92 ../lab5_bsp/\libucosii_bsp.a(alt_irq_vars.o)
 .debug_info    0x0001e38f      0x515 ../lab5_bsp/\libucosii_bsp.a(alt_isatty.o)
 .debug_info    0x0001e8a4      0x1a1 ../lab5_bsp/\libucosii_bsp.a(alt_load.o)
 .debug_info    0x0001ea45      0x3c0 ../lab5_bsp/\libucosii_bsp.a(alt_lseek.o)
 .debug_info    0x0001ee05      0x283 ../lab5_bsp/\libucosii_bsp.a(alt_main.o)
 .debug_info    0x0001f088      0x55d ../lab5_bsp/\libucosii_bsp.a(alt_read.o)
 .debug_info    0x0001f5e5      0x31f ../lab5_bsp/\libucosii_bsp.a(alt_release_fd.o)
 .debug_info    0x0001f904      0x1a5 ../lab5_bsp/\libucosii_bsp.a(alt_sbrk.o)
 .debug_info    0x0001faa9      0x2af ../lab5_bsp/\libucosii_bsp.a(alt_tick.o)
 .debug_info    0x0001fd58      0x564 ../lab5_bsp/\libucosii_bsp.a(alt_write.o)
 .debug_info    0x000202bc      0xd5b ../lab5_bsp/\libucosii_bsp.a(alt_env_lock.o)
 .debug_info    0x00021017      0xe8e ../lab5_bsp/\libucosii_bsp.a(alt_malloc_lock.o)
 .debug_info    0x00021ea5     0x173d ../lab5_bsp/\libucosii_bsp.a(os_core.o)
 .debug_info    0x000235e2      0xb8d ../lab5_bsp/\libucosii_bsp.a(os_dbg.o)
 .debug_info    0x0002416f      0xf8d ../lab5_bsp/\libucosii_bsp.a(os_flag.o)
 .debug_info    0x000250fc      0x67b ../lab5_bsp/\libucosii_bsp.a(os_mem.o)
 .debug_info    0x00025777      0xdd6 ../lab5_bsp/\libucosii_bsp.a(os_q.o)
 .debug_info    0x0002654d      0xa31 ../lab5_bsp/\libucosii_bsp.a(os_sem.o)
 .debug_info    0x00026f7e     0x111e ../lab5_bsp/\libucosii_bsp.a(os_task.o)
 .debug_info    0x0002809c      0x732 ../lab5_bsp/\libucosii_bsp.a(os_time.o)
 .debug_info    0x000287ce      0x66f ../lab5_bsp/\libucosii_bsp.a(alt_sys_init.o)
 .debug_info    0x00028e3d      0x6ed ../lab5_bsp/\libucosii_bsp.a(altera_avalon_jtag_uart_fd.o)
 .debug_info    0x0002952a      0x6c9 ../lab5_bsp/\libucosii_bsp.a(altera_avalon_jtag_uart_init.o)
 .debug_info    0x00029bf3      0x40c ../lab5_bsp/\libucosii_bsp.a(altera_avalon_jtag_uart_ioctl.o)
 .debug_info    0x00029fff      0x5b1 ../lab5_bsp/\libucosii_bsp.a(altera_avalon_jtag_uart_read.o)
 .debug_info    0x0002a5b0      0x5a0 ../lab5_bsp/\libucosii_bsp.a(altera_avalon_jtag_uart_write.o)
 .debug_info    0x0002ab50      0x225 ../lab5_bsp/\libucosii_bsp.a(altera_avalon_timer_sc.o)
 .debug_info    0x0002ad75      0x2c6 ../lab5_bsp/\libucosii_bsp.a(alt_alarm_start.o)
 .debug_info    0x0002b03b      0x1b7 ../lab5_bsp/\libucosii_bsp.a(alt_dev_llist_insert.o)
 .debug_info    0x0002b1f2       0x8d ../lab5_bsp/\libucosii_bsp.a(alt_do_ctors.o)
 .debug_info    0x0002b27f       0x8d ../lab5_bsp/\libucosii_bsp.a(alt_do_dtors.o)
 .debug_info    0x0002b30c       0x63 ../lab5_bsp/\libucosii_bsp.a(alt_exception_entry.o)
 .debug_info    0x0002b36f       0x8f ../lab5_bsp/\libucosii_bsp.a(alt_icache_flush_all.o)
 .debug_info    0x0002b3fe      0x52e ../lab5_bsp/\libucosii_bsp.a(alt_io_redirect.o)
 .debug_info    0x0002b92c      0x439 ../lab5_bsp/\libucosii_bsp.a(alt_open.o)
 .debug_info    0x0002bd65       0x8d ../lab5_bsp/\libucosii_bsp.a(altera_nios2_qsys_irq.o)
 .debug_info    0x0002bdf2       0x5c ../lab5_bsp/\libucosii_bsp.a(os_cpu_a.o)
 .debug_info    0x0002be4e      0xde2 ../lab5_bsp/\libucosii_bsp.a(os_cpu_c.o)
 .debug_info    0x0002cc30      0x348 ../lab5_bsp/\libucosii_bsp.a(alt_find_dev.o)
 .debug_info    0x0002cf78      0x346 ../lab5_bsp/\libucosii_bsp.a(alt_find_file.o)
 .debug_info    0x0002d2be      0x482 ../lab5_bsp/\libucosii_bsp.a(alt_get_fd.o)
 .debug_info    0x0002d740       0xd5 ../lab5_bsp/\libucosii_bsp.a(alt_icache_flush.o)
 .debug_info    0x0002d815      0x181 c:/altera/13.0sp1/nios2eds/bin/gnu/h-i686-mingw32/bin/../lib/gcc/nios2-elf/4.1.2/../../../../nios2-elf/lib\libc.a(lib_a-atexit.o)
 .debug_info    0x0002d996      0x93f c:/altera/13.0sp1/nios2eds/bin/gnu/h-i686-mingw32/bin/../lib/gcc/nios2-elf/4.1.2/../../../../nios2-elf/lib\libc.a(lib_a-exit.o)
 .debug_info    0x0002e2d5      0x115 c:/altera/13.0sp1/nios2eds/bin/gnu/h-i686-mingw32/bin/../lib/gcc/nios2-elf/4.1.2/../../../../nios2-elf/lib\libc.a(lib_a-memcmp.o)
 .debug_info    0x0002e3ea      0x99c c:/altera/13.0sp1/nios2eds/bin/gnu/h-i686-mingw32/bin/../lib/gcc/nios2-elf/4.1.2/../../../../nios2-elf/lib\libc.a(lib_a-__atexit.o)
 .debug_info    0x0002ed86      0x9e2 c:/altera/13.0sp1/nios2eds/bin/gnu/h-i686-mingw32/bin/../lib/gcc/nios2-elf/4.1.2/../../../../nios2-elf/lib\libc.a(lib_a-__call_atexit.o)
 .debug_info    0x0002f768       0xce c:/altera/13.0sp1/nios2eds/bin/gnu/h-i686-mingw32/bin/../lib/gcc/nios2-elf/4.1.2\libgcc.a(_fixunsdfsi.o)
 .debug_info    0x0002f836      0x137 ../lab5_bsp/\libucosii_bsp.a(alt_exit.o)

.debug_abbrev   0x00000000     0xae9c
 *(.debug_abbrev)
 .debug_abbrev  0x00000000       0x12 ../lab5_bsp//obj/HAL/src/crt0.o
 .debug_abbrev  0x00000012      0x160 obj/default/drivers/drivers.o
 .debug_abbrev  0x00000172       0x97 obj/default/fonts/tahomabold_20.o
 .debug_abbrev  0x00000209       0x97 obj/default/fonts/tahomabold_32.o
 .debug_abbrev  0x000002a0       0xa5 obj/default/frame.o
 .debug_abbrev  0x00000345      0x16e obj/default/graphic_lib/draw_gimps.o
 .debug_abbrev  0x000004b3      0x16a obj/default/graphic_lib/gimp_bmp.o
 .debug_abbrev  0x0000061d      0x365 obj/default/graphic_lib/simple_graphics.o
 .debug_abbrev  0x00000982      0x26b obj/default/graphic_lib/simple_text.o
 .debug_abbrev  0x00000bed      0x15b obj/default/hello_ucosii.o
 .debug_abbrev  0x00000d48       0x65 obj/default/imagenes/back_down.o
 .debug_abbrev  0x00000dad       0x65 obj/default/imagenes/back_up.o
 .debug_abbrev  0x00000e12       0x65 obj/default/imagenes/ford_down.o
 .debug_abbrev  0x00000e77       0x65 obj/default/imagenes/ford_up.o
 .debug_abbrev  0x00000edc       0x65 obj/default/imagenes/pause_down.o
 .debug_abbrev  0x00000f41       0x65 obj/default/imagenes/pause_up.o
 .debug_abbrev  0x00000fa6       0x65 obj/default/imagenes/play_down.o
 .debug_abbrev  0x0000100b       0x65 obj/default/imagenes/play_up.o
 .debug_abbrev  0x00001070       0x65 obj/default/imagenes/stop_down.o
 .debug_abbrev  0x000010d5       0x65 obj/default/imagenes/stop_up.o
 .debug_abbrev  0x0000113a       0x49 obj/default/song/song.o
 .debug_abbrev  0x00001183       0x87 obj/default/student_code/student_code.o
 .debug_abbrev  0x0000120a      0x151 obj/default/vip_fr.o
 .debug_abbrev  0x0000135b      0x176 c:/altera/13.0sp1/nios2eds/bin/gnu/h-i686-mingw32/bin/../lib/gcc/nios2-elf/4.1.2\libgcc.a(_sf_to_si.o)
 .debug_abbrev  0x000014d1       0xe0 c:/altera/13.0sp1/nios2eds/bin/gnu/h-i686-mingw32/bin/../lib/gcc/nios2-elf/4.1.2\libgcc.a(lib2-divmod.o)
 .debug_abbrev  0x000015b1      0x158 c:/altera/13.0sp1/nios2eds/bin/gnu/h-i686-mingw32/bin/../lib/gcc/nios2-elf/4.1.2\libgcc.a(_unpack_sf.o)
 .debug_abbrev  0x00001709      0x187 c:/altera/13.0sp1/nios2eds/bin/gnu/h-i686-mingw32/bin/../lib/gcc/nios2-elf/4.1.2/../../../../nios2-elf/lib\libc.a(lib_a-malloc.o)
 .debug_abbrev  0x00001890      0x216 c:/altera/13.0sp1/nios2eds/bin/gnu/h-i686-mingw32/bin/../lib/gcc/nios2-elf/4.1.2/../../../../nios2-elf/lib\libc.a(lib_a-mallocr.o)
 .debug_abbrev  0x00001aa6       0xb5 c:/altera/13.0sp1/nios2eds/bin/gnu/h-i686-mingw32/bin/../lib/gcc/nios2-elf/4.1.2/../../../../nios2-elf/lib\libc.a(lib_a-memcpy.o)
 .debug_abbrev  0x00001b5b       0xb8 c:/altera/13.0sp1/nios2eds/bin/gnu/h-i686-mingw32/bin/../lib/gcc/nios2-elf/4.1.2/../../../../nios2-elf/lib\libc.a(lib_a-memset.o)
 .debug_abbrev  0x00001c13      0x191 c:/altera/13.0sp1/nios2eds/bin/gnu/h-i686-mingw32/bin/../lib/gcc/nios2-elf/4.1.2/../../../../nios2-elf/lib\libc.a(lib_a-printf.o)
 .debug_abbrev  0x00001da4      0x18c c:/altera/13.0sp1/nios2eds/bin/gnu/h-i686-mingw32/bin/../lib/gcc/nios2-elf/4.1.2/../../../../nios2-elf/lib\libc.a(lib_a-sbrkr.o)
 .debug_abbrev  0x00001f30       0x8f c:/altera/13.0sp1/nios2eds/bin/gnu/h-i686-mingw32/bin/../lib/gcc/nios2-elf/4.1.2/../../../../nios2-elf/lib\libc.a(lib_a-strcpy.o)
 .debug_abbrev  0x00001fbf       0x8b c:/altera/13.0sp1/nios2eds/bin/gnu/h-i686-mingw32/bin/../lib/gcc/nios2-elf/4.1.2/../../../../nios2-elf/lib\libc.a(lib_a-strlen.o)
 .debug_abbrev  0x0000204a      0x30a c:/altera/13.0sp1/nios2eds/bin/gnu/h-i686-mingw32/bin/../lib/gcc/nios2-elf/4.1.2/../../../../nios2-elf/lib\libc.a(lib_a-vfprintf.o)
 .debug_abbrev  0x00002354      0x170 c:/altera/13.0sp1/nios2eds/bin/gnu/h-i686-mingw32/bin/../lib/gcc/nios2-elf/4.1.2/../../../../nios2-elf/lib\libc.a(lib_a-wsetup.o)
 .debug_abbrev  0x000024c4      0x232 c:/altera/13.0sp1/nios2eds/bin/gnu/h-i686-mingw32/bin/../lib/gcc/nios2-elf/4.1.2/../../../../nios2-elf/lib\libc.a(lib_a-dtoa.o)
 .debug_abbrev  0x000026f6      0x1c6 c:/altera/13.0sp1/nios2eds/bin/gnu/h-i686-mingw32/bin/../lib/gcc/nios2-elf/4.1.2/../../../../nios2-elf/lib\libc.a(lib_a-fflush.o)
 .debug_abbrev  0x000028bc      0x24c c:/altera/13.0sp1/nios2eds/bin/gnu/h-i686-mingw32/bin/../lib/gcc/nios2-elf/4.1.2/../../../../nios2-elf/lib\libc.a(lib_a-findfp.o)
 .debug_abbrev  0x00002b08      0x1d9 c:/altera/13.0sp1/nios2eds/bin/gnu/h-i686-mingw32/bin/../lib/gcc/nios2-elf/4.1.2/../../../../nios2-elf/lib\libc.a(lib_a-freer.o)
 .debug_abbrev  0x00002ce1      0x1a3 c:/altera/13.0sp1/nios2eds/bin/gnu/h-i686-mingw32/bin/../lib/gcc/nios2-elf/4.1.2/../../../../nios2-elf/lib\libc.a(lib_a-fvwrite.o)
 .debug_abbrev  0x00002e84      0x1e3 c:/altera/13.0sp1/nios2eds/bin/gnu/h-i686-mingw32/bin/../lib/gcc/nios2-elf/4.1.2/../../../../nios2-elf/lib\libc.a(lib_a-fwalk.o)
 .debug_abbrev  0x00003067      0x157 c:/altera/13.0sp1/nios2eds/bin/gnu/h-i686-mingw32/bin/../lib/gcc/nios2-elf/4.1.2/../../../../nios2-elf/lib\libc.a(lib_a-impure.o)
 .debug_abbrev  0x000031be       0x3b c:/altera/13.0sp1/nios2eds/bin/gnu/h-i686-mingw32/bin/../lib/gcc/nios2-elf/4.1.2/../../../../nios2-elf/lib\libc.a(lib_a-int_errno.o)
 .debug_abbrev  0x000031f9      0x1ed c:/altera/13.0sp1/nios2eds/bin/gnu/h-i686-mingw32/bin/../lib/gcc/nios2-elf/4.1.2/../../../../nios2-elf/lib\libc.a(lib_a-locale.o)
 .debug_abbrev  0x000033e6      0x197 c:/altera/13.0sp1/nios2eds/bin/gnu/h-i686-mingw32/bin/../lib/gcc/nios2-elf/4.1.2/../../../../nios2-elf/lib\libc.a(lib_a-makebuf.o)
 .debug_abbrev  0x0000357d       0xb5 c:/altera/13.0sp1/nios2eds/bin/gnu/h-i686-mingw32/bin/../lib/gcc/nios2-elf/4.1.2/../../../../nios2-elf/lib\libc.a(lib_a-memchr.o)
 .debug_abbrev  0x00003632       0xb5 c:/altera/13.0sp1/nios2eds/bin/gnu/h-i686-mingw32/bin/../lib/gcc/nios2-elf/4.1.2/../../../../nios2-elf/lib\libc.a(lib_a-memmove.o)
 .debug_abbrev  0x000036e7      0x297 c:/altera/13.0sp1/nios2eds/bin/gnu/h-i686-mingw32/bin/../lib/gcc/nios2-elf/4.1.2/../../../../nios2-elf/lib\libc.a(lib_a-mprec.o)
 .debug_abbrev  0x0000397e      0x1c3 c:/altera/13.0sp1/nios2eds/bin/gnu/h-i686-mingw32/bin/../lib/gcc/nios2-elf/4.1.2/../../../../nios2-elf/lib\libc.a(lib_a-reallocr.o)
 .debug_abbrev  0x00003b41       0x79 c:/altera/13.0sp1/nios2eds/bin/gnu/h-i686-mingw32/bin/../lib/gcc/nios2-elf/4.1.2/../../../../nios2-elf/lib\libc.a(lib_a-s_isinfd.o)
 .debug_abbrev  0x00003bba       0x79 c:/altera/13.0sp1/nios2eds/bin/gnu/h-i686-mingw32/bin/../lib/gcc/nios2-elf/4.1.2/../../../../nios2-elf/lib\libc.a(lib_a-s_isnand.o)
 .debug_abbrev  0x00003c33      0x1c9 c:/altera/13.0sp1/nios2eds/bin/gnu/h-i686-mingw32/bin/../lib/gcc/nios2-elf/4.1.2/../../../../nios2-elf/lib\libc.a(lib_a-stdio.o)
 .debug_abbrev  0x00003dfc       0x80 c:/altera/13.0sp1/nios2eds/bin/gnu/h-i686-mingw32/bin/../lib/gcc/nios2-elf/4.1.2/../../../../nios2-elf/lib\libc.a(lib_a-strcmp.o)
 .debug_abbrev  0x00003e7c      0x184 c:/altera/13.0sp1/nios2eds/bin/gnu/h-i686-mingw32/bin/../lib/gcc/nios2-elf/4.1.2/../../../../nios2-elf/lib\libc.a(lib_a-writer.o)
 .debug_abbrev  0x00004000      0x1b8 c:/altera/13.0sp1/nios2eds/bin/gnu/h-i686-mingw32/bin/../lib/gcc/nios2-elf/4.1.2/../../../../nios2-elf/lib\libc.a(lib_a-callocr.o)
 .debug_abbrev  0x000041b8      0x17f c:/altera/13.0sp1/nios2eds/bin/gnu/h-i686-mingw32/bin/../lib/gcc/nios2-elf/4.1.2/../../../../nios2-elf/lib\libc.a(lib_a-closer.o)
 .debug_abbrev  0x00004337      0x1a7 c:/altera/13.0sp1/nios2eds/bin/gnu/h-i686-mingw32/bin/../lib/gcc/nios2-elf/4.1.2/../../../../nios2-elf/lib\libc.a(lib_a-fclose.o)
 .debug_abbrev  0x000044de      0x18e c:/altera/13.0sp1/nios2eds/bin/gnu/h-i686-mingw32/bin/../lib/gcc/nios2-elf/4.1.2/../../../../nios2-elf/lib\libc.a(lib_a-fstatr.o)
 .debug_abbrev  0x0000466c      0x17f c:/altera/13.0sp1/nios2eds/bin/gnu/h-i686-mingw32/bin/../lib/gcc/nios2-elf/4.1.2/../../../../nios2-elf/lib\libc.a(lib_a-isattyr.o)
 .debug_abbrev  0x000047eb      0x18e c:/altera/13.0sp1/nios2eds/bin/gnu/h-i686-mingw32/bin/../lib/gcc/nios2-elf/4.1.2/../../../../nios2-elf/lib\libc.a(lib_a-lseekr.o)
 .debug_abbrev  0x00004979      0x17f c:/altera/13.0sp1/nios2eds/bin/gnu/h-i686-mingw32/bin/../lib/gcc/nios2-elf/4.1.2/../../../../nios2-elf/lib\libc.a(lib_a-readr.o)
 .debug_abbrev  0x00004af8      0x16b c:/altera/13.0sp1/nios2eds/bin/gnu/h-i686-mingw32/bin/../lib/gcc/nios2-elf/4.1.2\libgcc.a(_udivdi3.o)
 .debug_abbrev  0x00004c63      0x18e c:/altera/13.0sp1/nios2eds/bin/gnu/h-i686-mingw32/bin/../lib/gcc/nios2-elf/4.1.2\libgcc.a(_umoddi3.o)
 .debug_abbrev  0x00004df1      0x1d2 c:/altera/13.0sp1/nios2eds/bin/gnu/h-i686-mingw32/bin/../lib/gcc/nios2-elf/4.1.2\libgcc.a(_addsub_df.o)
 .debug_abbrev  0x00004fc3      0x204 c:/altera/13.0sp1/nios2eds/bin/gnu/h-i686-mingw32/bin/../lib/gcc/nios2-elf/4.1.2\libgcc.a(_mul_df.o)
 .debug_abbrev  0x000051c7      0x1e3 c:/altera/13.0sp1/nios2eds/bin/gnu/h-i686-mingw32/bin/../lib/gcc/nios2-elf/4.1.2\libgcc.a(_div_df.o)
 .debug_abbrev  0x000053aa      0x151 c:/altera/13.0sp1/nios2eds/bin/gnu/h-i686-mingw32/bin/../lib/gcc/nios2-elf/4.1.2\libgcc.a(_eq_df.o)
 .debug_abbrev  0x000054fb      0x151 c:/altera/13.0sp1/nios2eds/bin/gnu/h-i686-mingw32/bin/../lib/gcc/nios2-elf/4.1.2\libgcc.a(_ne_df.o)
 .debug_abbrev  0x0000564c      0x151 c:/altera/13.0sp1/nios2eds/bin/gnu/h-i686-mingw32/bin/../lib/gcc/nios2-elf/4.1.2\libgcc.a(_gt_df.o)
 .debug_abbrev  0x0000579d      0x151 c:/altera/13.0sp1/nios2eds/bin/gnu/h-i686-mingw32/bin/../lib/gcc/nios2-elf/4.1.2\libgcc.a(_ge_df.o)
 .debug_abbrev  0x000058ee      0x151 c:/altera/13.0sp1/nios2eds/bin/gnu/h-i686-mingw32/bin/../lib/gcc/nios2-elf/4.1.2\libgcc.a(_lt_df.o)
 .debug_abbrev  0x00005a3f      0x13f c:/altera/13.0sp1/nios2eds/bin/gnu/h-i686-mingw32/bin/../lib/gcc/nios2-elf/4.1.2\libgcc.a(_si_to_df.o)
 .debug_abbrev  0x00005b7e      0x176 c:/altera/13.0sp1/nios2eds/bin/gnu/h-i686-mingw32/bin/../lib/gcc/nios2-elf/4.1.2\libgcc.a(_df_to_si.o)
 .debug_abbrev  0x00005cf4       0xba c:/altera/13.0sp1/nios2eds/bin/gnu/h-i686-mingw32/bin/../lib/gcc/nios2-elf/4.1.2\libgcc.a(_thenan_df.o)
 .debug_abbrev  0x00005dae      0x155 c:/altera/13.0sp1/nios2eds/bin/gnu/h-i686-mingw32/bin/../lib/gcc/nios2-elf/4.1.2\libgcc.a(_usi_to_df.o)
 .debug_abbrev  0x00005f03       0xee c:/altera/13.0sp1/nios2eds/bin/gnu/h-i686-mingw32/bin/../lib/gcc/nios2-elf/4.1.2\libgcc.a(_muldi3.o)
 .debug_abbrev  0x00005ff1       0x61 c:/altera/13.0sp1/nios2eds/bin/gnu/h-i686-mingw32/bin/../lib/gcc/nios2-elf/4.1.2\libgcc.a(_clz.o)
 .debug_abbrev  0x00006052       0xb9 c:/altera/13.0sp1/nios2eds/bin/gnu/h-i686-mingw32/bin/../lib/gcc/nios2-elf/4.1.2\libgcc.a(_clzsi2.o)
 .debug_abbrev  0x0000610b      0x1b1 c:/altera/13.0sp1/nios2eds/bin/gnu/h-i686-mingw32/bin/../lib/gcc/nios2-elf/4.1.2\libgcc.a(_pack_df.o)
 .debug_abbrev  0x000062bc      0x149 c:/altera/13.0sp1/nios2eds/bin/gnu/h-i686-mingw32/bin/../lib/gcc/nios2-elf/4.1.2\libgcc.a(_unpack_df.o)
 .debug_abbrev  0x00006405      0x132 c:/altera/13.0sp1/nios2eds/bin/gnu/h-i686-mingw32/bin/../lib/gcc/nios2-elf/4.1.2\libgcc.a(_fpcmp_parts_df.o)
 .debug_abbrev  0x00006537      0x12b ../lab5_bsp/\libucosii_bsp.a(alt_close.o)
 .debug_abbrev  0x00006662       0x3f ../lab5_bsp/\libucosii_bsp.a(alt_dcache_flush_all.o)
 .debug_abbrev  0x000066a1      0x119 ../lab5_bsp/\libucosii_bsp.a(alt_dev.o)
 .debug_abbrev  0x000067ba       0x5e ../lab5_bsp/\libucosii_bsp.a(alt_errno.o)
 .debug_abbrev  0x00006818      0x12b ../lab5_bsp/\libucosii_bsp.a(alt_fstat.o)
 .debug_abbrev  0x00006943      0x179 ../lab5_bsp/\libucosii_bsp.a(alt_iic.o)
 .debug_abbrev  0x00006abc      0x171 ../lab5_bsp/\libucosii_bsp.a(alt_iic_isr_register.o)
 .debug_abbrev  0x00006c2d       0x12 ../lab5_bsp/\libucosii_bsp.a(alt_irq_entry.o)
 .debug_abbrev  0x00006c3f      0x12f ../lab5_bsp/\libucosii_bsp.a(alt_irq_handler.o)
 .debug_abbrev  0x00006d6e       0x44 ../lab5_bsp/\libucosii_bsp.a(alt_irq_vars.o)
 .debug_abbrev  0x00006db2      0x12b ../lab5_bsp/\libucosii_bsp.a(alt_isatty.o)
 .debug_abbrev  0x00006edd       0xb6 ../lab5_bsp/\libucosii_bsp.a(alt_load.o)
 .debug_abbrev  0x00006f93      0x12b ../lab5_bsp/\libucosii_bsp.a(alt_lseek.o)
 .debug_abbrev  0x000070be      0x134 ../lab5_bsp/\libucosii_bsp.a(alt_main.o)
 .debug_abbrev  0x000071f2      0x13a ../lab5_bsp/\libucosii_bsp.a(alt_read.o)
 .debug_abbrev  0x0000732c       0xe2 ../lab5_bsp/\libucosii_bsp.a(alt_release_fd.o)
 .debug_abbrev  0x0000740e      0x10b ../lab5_bsp/\libucosii_bsp.a(alt_sbrk.o)
 .debug_abbrev  0x00007519      0x15f ../lab5_bsp/\libucosii_bsp.a(alt_tick.o)
 .debug_abbrev  0x00007678      0x13f ../lab5_bsp/\libucosii_bsp.a(alt_write.o)
 .debug_abbrev  0x000077b7      0x1b3 ../lab5_bsp/\libucosii_bsp.a(alt_env_lock.o)
 .debug_abbrev  0x0000796a      0x248 ../lab5_bsp/\libucosii_bsp.a(alt_malloc_lock.o)
 .debug_abbrev  0x00007bb2      0x32b ../lab5_bsp/\libucosii_bsp.a(os_core.o)
 .debug_abbrev  0x00007edd       0xf2 ../lab5_bsp/\libucosii_bsp.a(os_dbg.o)
 .debug_abbrev  0x00007fcf      0x2a6 ../lab5_bsp/\libucosii_bsp.a(os_flag.o)
 .debug_abbrev  0x00008275      0x269 ../lab5_bsp/\libucosii_bsp.a(os_mem.o)
 .debug_abbrev  0x000084de      0x2ba ../lab5_bsp/\libucosii_bsp.a(os_q.o)
 .debug_abbrev  0x00008798      0x2a2 ../lab5_bsp/\libucosii_bsp.a(os_sem.o)
 .debug_abbrev  0x00008a3a      0x284 ../lab5_bsp/\libucosii_bsp.a(os_task.o)
 .debug_abbrev  0x00008cbe      0x209 ../lab5_bsp/\libucosii_bsp.a(os_time.o)
 .debug_abbrev  0x00008ec7      0x1a0 ../lab5_bsp/\libucosii_bsp.a(alt_sys_init.o)
 .debug_abbrev  0x00009067      0x158 ../lab5_bsp/\libucosii_bsp.a(altera_avalon_jtag_uart_fd.o)
 .debug_abbrev  0x000091bf      0x241 ../lab5_bsp/\libucosii_bsp.a(altera_avalon_jtag_uart_init.o)
 .debug_abbrev  0x00009400      0x151 ../lab5_bsp/\libucosii_bsp.a(altera_avalon_jtag_uart_ioctl.o)
 .debug_abbrev  0x00009551      0x1eb ../lab5_bsp/\libucosii_bsp.a(altera_avalon_jtag_uart_read.o)
 .debug_abbrev  0x0000973c      0x1ff ../lab5_bsp/\libucosii_bsp.a(altera_avalon_jtag_uart_write.o)
 .debug_abbrev  0x0000993b      0x14b ../lab5_bsp/\libucosii_bsp.a(altera_avalon_timer_sc.o)
 .debug_abbrev  0x00009a86      0x179 ../lab5_bsp/\libucosii_bsp.a(alt_alarm_start.o)
 .debug_abbrev  0x00009bff      0x117 ../lab5_bsp/\libucosii_bsp.a(alt_dev_llist_insert.o)
 .debug_abbrev  0x00009d16       0x76 ../lab5_bsp/\libucosii_bsp.a(alt_do_ctors.o)
 .debug_abbrev  0x00009d8c       0x76 ../lab5_bsp/\libucosii_bsp.a(alt_do_dtors.o)
 .debug_abbrev  0x00009e02       0x12 ../lab5_bsp/\libucosii_bsp.a(alt_exception_entry.o)
 .debug_abbrev  0x00009e14       0x3f ../lab5_bsp/\libucosii_bsp.a(alt_icache_flush_all.o)
 .debug_abbrev  0x00009e53      0x115 ../lab5_bsp/\libucosii_bsp.a(alt_io_redirect.o)
 .debug_abbrev  0x00009f68      0x17e ../lab5_bsp/\libucosii_bsp.a(alt_open.o)
 .debug_abbrev  0x0000a0e6       0x3f ../lab5_bsp/\libucosii_bsp.a(altera_nios2_qsys_irq.o)
 .debug_abbrev  0x0000a125       0x14 ../lab5_bsp/\libucosii_bsp.a(os_cpu_a.o)
 .debug_abbrev  0x0000a139      0x1fb ../lab5_bsp/\libucosii_bsp.a(os_cpu_c.o)
 .debug_abbrev  0x0000a334       0xf4 ../lab5_bsp/\libucosii_bsp.a(alt_find_dev.o)
 .debug_abbrev  0x0000a428       0xf4 ../lab5_bsp/\libucosii_bsp.a(alt_find_file.o)
 .debug_abbrev  0x0000a51c      0x196 ../lab5_bsp/\libucosii_bsp.a(alt_get_fd.o)
 .debug_abbrev  0x0000a6b2       0x89 ../lab5_bsp/\libucosii_bsp.a(alt_icache_flush.o)
 .debug_abbrev  0x0000a73b       0xb7 c:/altera/13.0sp1/nios2eds/bin/gnu/h-i686-mingw32/bin/../lib/gcc/nios2-elf/4.1.2/../../../../nios2-elf/lib\libc.a(lib_a-atexit.o)
 .debug_abbrev  0x0000a7f2      0x16e c:/altera/13.0sp1/nios2eds/bin/gnu/h-i686-mingw32/bin/../lib/gcc/nios2-elf/4.1.2/../../../../nios2-elf/lib\libc.a(lib_a-exit.o)
 .debug_abbrev  0x0000a960       0x7c c:/altera/13.0sp1/nios2eds/bin/gnu/h-i686-mingw32/bin/../lib/gcc/nios2-elf/4.1.2/../../../../nios2-elf/lib\libc.a(lib_a-memcmp.o)
 .debug_abbrev  0x0000a9dc      0x1ae c:/altera/13.0sp1/nios2eds/bin/gnu/h-i686-mingw32/bin/../lib/gcc/nios2-elf/4.1.2/../../../../nios2-elf/lib\libc.a(lib_a-__atexit.o)
 .debug_abbrev  0x0000ab8a      0x1de c:/altera/13.0sp1/nios2eds/bin/gnu/h-i686-mingw32/bin/../lib/gcc/nios2-elf/4.1.2/../../../../nios2-elf/lib\libc.a(lib_a-__call_atexit.o)
 .debug_abbrev  0x0000ad68       0x5d c:/altera/13.0sp1/nios2eds/bin/gnu/h-i686-mingw32/bin/../lib/gcc/nios2-elf/4.1.2\libgcc.a(_fixunsdfsi.o)
 .debug_abbrev  0x0000adc5       0xd7 ../lab5_bsp/\libucosii_bsp.a(alt_exit.o)

.debug_line     0x00000000    0x1dfbb
 *(.debug_line)
 .debug_line    0x00000000       0x6c ../lab5_bsp//obj/HAL/src/crt0.o
 .debug_line    0x0000006c     0x1114 obj/default/drivers/drivers.o
 .debug_line    0x00001180       0x5a obj/default/fonts/tahomabold_20.o
 .debug_line    0x000011da       0x5a obj/default/fonts/tahomabold_32.o
 .debug_line    0x00001234      0x18b obj/default/frame.o
 .debug_line    0x000013bf      0x54c obj/default/graphic_lib/draw_gimps.o
 .debug_line    0x0000190b      0x4a2 obj/default/graphic_lib/gimp_bmp.o
 .debug_line    0x00001dad     0x10a8 obj/default/graphic_lib/simple_graphics.o
 .debug_line    0x00002e55      0x8d9 obj/default/graphic_lib/simple_text.o
 .debug_line    0x0000372e      0x81c obj/default/hello_ucosii.o
 .debug_line    0x00003f4a       0x59 obj/default/imagenes/back_down.o
 .debug_line    0x00003fa3       0x57 obj/default/imagenes/back_up.o
 .debug_line    0x00003ffa       0x59 obj/default/imagenes/ford_down.o
 .debug_line    0x00004053       0x57 obj/default/imagenes/ford_up.o
 .debug_line    0x000040aa       0x5a obj/default/imagenes/pause_down.o
 .debug_line    0x00004104       0x58 obj/default/imagenes/pause_up.o
 .debug_line    0x0000415c       0x59 obj/default/imagenes/play_down.o
 .debug_line    0x000041b5       0x57 obj/default/imagenes/play_up.o
 .debug_line    0x0000420c       0x59 obj/default/imagenes/stop_down.o
 .debug_line    0x00004265       0x57 obj/default/imagenes/stop_up.o
 .debug_line    0x000042bc       0x50 obj/default/song/song.o
 .debug_line    0x0000430c      0x231 obj/default/student_code/student_code.o
 .debug_line    0x0000453d      0x4f2 obj/default/vip_fr.o
 .debug_line    0x00004a2f      0x141 c:/altera/13.0sp1/nios2eds/bin/gnu/h-i686-mingw32/bin/../lib/gcc/nios2-elf/4.1.2\libgcc.a(_sf_to_si.o)
 .debug_line    0x00004b70      0x24f c:/altera/13.0sp1/nios2eds/bin/gnu/h-i686-mingw32/bin/../lib/gcc/nios2-elf/4.1.2\libgcc.a(lib2-divmod.o)
 .debug_line    0x00004dbf      0x197 c:/altera/13.0sp1/nios2eds/bin/gnu/h-i686-mingw32/bin/../lib/gcc/nios2-elf/4.1.2\libgcc.a(_unpack_sf.o)
 .debug_line    0x00004f56      0x24b c:/altera/13.0sp1/nios2eds/bin/gnu/h-i686-mingw32/bin/../lib/gcc/nios2-elf/4.1.2/../../../../nios2-elf/lib\libc.a(lib_a-malloc.o)
 .debug_line    0x000051a1      0x80a c:/altera/13.0sp1/nios2eds/bin/gnu/h-i686-mingw32/bin/../lib/gcc/nios2-elf/4.1.2/../../../../nios2-elf/lib\libc.a(lib_a-mallocr.o)
 .debug_line    0x000059ab      0x1ac c:/altera/13.0sp1/nios2eds/bin/gnu/h-i686-mingw32/bin/../lib/gcc/nios2-elf/4.1.2/../../../../nios2-elf/lib\libc.a(lib_a-memcpy.o)
 .debug_line    0x00005b57      0x301 c:/altera/13.0sp1/nios2eds/bin/gnu/h-i686-mingw32/bin/../lib/gcc/nios2-elf/4.1.2/../../../../nios2-elf/lib\libc.a(lib_a-memset.o)
 .debug_line    0x00005e58      0x29b c:/altera/13.0sp1/nios2eds/bin/gnu/h-i686-mingw32/bin/../lib/gcc/nios2-elf/4.1.2/../../../../nios2-elf/lib\libc.a(lib_a-printf.o)
 .debug_line    0x000060f3      0x299 c:/altera/13.0sp1/nios2eds/bin/gnu/h-i686-mingw32/bin/../lib/gcc/nios2-elf/4.1.2/../../../../nios2-elf/lib\libc.a(lib_a-sbrkr.o)
 .debug_line    0x0000638c      0x287 c:/altera/13.0sp1/nios2eds/bin/gnu/h-i686-mingw32/bin/../lib/gcc/nios2-elf/4.1.2/../../../../nios2-elf/lib\libc.a(lib_a-strcpy.o)
 .debug_line    0x00006613      0x26d c:/altera/13.0sp1/nios2eds/bin/gnu/h-i686-mingw32/bin/../lib/gcc/nios2-elf/4.1.2/../../../../nios2-elf/lib\libc.a(lib_a-strlen.o)
 .debug_line    0x00006880     0x110c c:/altera/13.0sp1/nios2eds/bin/gnu/h-i686-mingw32/bin/../lib/gcc/nios2-elf/4.1.2/../../../../nios2-elf/lib\libc.a(lib_a-vfprintf.o)
 .debug_line    0x0000798c      0x2f0 c:/altera/13.0sp1/nios2eds/bin/gnu/h-i686-mingw32/bin/../lib/gcc/nios2-elf/4.1.2/../../../../nios2-elf/lib\libc.a(lib_a-wsetup.o)
 .debug_line    0x00007c7c     0x12c6 c:/altera/13.0sp1/nios2eds/bin/gnu/h-i686-mingw32/bin/../lib/gcc/nios2-elf/4.1.2/../../../../nios2-elf/lib\libc.a(lib_a-dtoa.o)
 .debug_line    0x00008f42      0x40d c:/altera/13.0sp1/nios2eds/bin/gnu/h-i686-mingw32/bin/../lib/gcc/nios2-elf/4.1.2/../../../../nios2-elf/lib\libc.a(lib_a-fflush.o)
 .debug_line    0x0000934f      0x601 c:/altera/13.0sp1/nios2eds/bin/gnu/h-i686-mingw32/bin/../lib/gcc/nios2-elf/4.1.2/../../../../nios2-elf/lib\libc.a(lib_a-findfp.o)
 .debug_line    0x00009950      0x5eb c:/altera/13.0sp1/nios2eds/bin/gnu/h-i686-mingw32/bin/../lib/gcc/nios2-elf/4.1.2/../../../../nios2-elf/lib\libc.a(lib_a-freer.o)
 .debug_line    0x00009f3b      0x641 c:/altera/13.0sp1/nios2eds/bin/gnu/h-i686-mingw32/bin/../lib/gcc/nios2-elf/4.1.2/../../../../nios2-elf/lib\libc.a(lib_a-fvwrite.o)
 .debug_line    0x0000a57c      0x34a c:/altera/13.0sp1/nios2eds/bin/gnu/h-i686-mingw32/bin/../lib/gcc/nios2-elf/4.1.2/../../../../nios2-elf/lib\libc.a(lib_a-fwalk.o)
 .debug_line    0x0000a8c6      0x22d c:/altera/13.0sp1/nios2eds/bin/gnu/h-i686-mingw32/bin/../lib/gcc/nios2-elf/4.1.2/../../../../nios2-elf/lib\libc.a(lib_a-impure.o)
 .debug_line    0x0000aaf3      0x1df c:/altera/13.0sp1/nios2eds/bin/gnu/h-i686-mingw32/bin/../lib/gcc/nios2-elf/4.1.2/../../../../nios2-elf/lib\libc.a(lib_a-int_errno.o)
 .debug_line    0x0000acd2      0x2c8 c:/altera/13.0sp1/nios2eds/bin/gnu/h-i686-mingw32/bin/../lib/gcc/nios2-elf/4.1.2/../../../../nios2-elf/lib\libc.a(lib_a-locale.o)
 .debug_line    0x0000af9a      0x3c3 c:/altera/13.0sp1/nios2eds/bin/gnu/h-i686-mingw32/bin/../lib/gcc/nios2-elf/4.1.2/../../../../nios2-elf/lib\libc.a(lib_a-makebuf.o)
 .debug_line    0x0000b35d      0x303 c:/altera/13.0sp1/nios2eds/bin/gnu/h-i686-mingw32/bin/../lib/gcc/nios2-elf/4.1.2/../../../../nios2-elf/lib\libc.a(lib_a-memchr.o)
 .debug_line    0x0000b660      0x30a c:/altera/13.0sp1/nios2eds/bin/gnu/h-i686-mingw32/bin/../lib/gcc/nios2-elf/4.1.2/../../../../nios2-elf/lib\libc.a(lib_a-memmove.o)
 .debug_line    0x0000b96a     0x1243 c:/altera/13.0sp1/nios2eds/bin/gnu/h-i686-mingw32/bin/../lib/gcc/nios2-elf/4.1.2/../../../../nios2-elf/lib\libc.a(lib_a-mprec.o)
 .debug_line    0x0000cbad      0x58a c:/altera/13.0sp1/nios2eds/bin/gnu/h-i686-mingw32/bin/../lib/gcc/nios2-elf/4.1.2/../../../../nios2-elf/lib\libc.a(lib_a-reallocr.o)
 .debug_line    0x0000d137      0x222 c:/altera/13.0sp1/nios2eds/bin/gnu/h-i686-mingw32/bin/../lib/gcc/nios2-elf/4.1.2/../../../../nios2-elf/lib\libc.a(lib_a-s_isinfd.o)
 .debug_line    0x0000d359      0x21a c:/altera/13.0sp1/nios2eds/bin/gnu/h-i686-mingw32/bin/../lib/gcc/nios2-elf/4.1.2/../../../../nios2-elf/lib\libc.a(lib_a-s_isnand.o)
 .debug_line    0x0000d573      0x38c c:/altera/13.0sp1/nios2eds/bin/gnu/h-i686-mingw32/bin/../lib/gcc/nios2-elf/4.1.2/../../../../nios2-elf/lib\libc.a(lib_a-stdio.o)
 .debug_line    0x0000d8ff      0x2d5 c:/altera/13.0sp1/nios2eds/bin/gnu/h-i686-mingw32/bin/../lib/gcc/nios2-elf/4.1.2/../../../../nios2-elf/lib\libc.a(lib_a-strcmp.o)
 .debug_line    0x0000dbd4      0x29a c:/altera/13.0sp1/nios2eds/bin/gnu/h-i686-mingw32/bin/../lib/gcc/nios2-elf/4.1.2/../../../../nios2-elf/lib\libc.a(lib_a-writer.o)
 .debug_line    0x0000de6e      0x25c c:/altera/13.0sp1/nios2eds/bin/gnu/h-i686-mingw32/bin/../lib/gcc/nios2-elf/4.1.2/../../../../nios2-elf/lib\libc.a(lib_a-callocr.o)
 .debug_line    0x0000e0ca      0x29a c:/altera/13.0sp1/nios2eds/bin/gnu/h-i686-mingw32/bin/../lib/gcc/nios2-elf/4.1.2/../../../../nios2-elf/lib\libc.a(lib_a-closer.o)
 .debug_line    0x0000e364      0x2e8 c:/altera/13.0sp1/nios2eds/bin/gnu/h-i686-mingw32/bin/../lib/gcc/nios2-elf/4.1.2/../../../../nios2-elf/lib\libc.a(lib_a-fclose.o)
 .debug_line    0x0000e64c      0x264 c:/altera/13.0sp1/nios2eds/bin/gnu/h-i686-mingw32/bin/../lib/gcc/nios2-elf/4.1.2/../../../../nios2-elf/lib\libc.a(lib_a-fstatr.o)
 .debug_line    0x0000e8b0      0x29b c:/altera/13.0sp1/nios2eds/bin/gnu/h-i686-mingw32/bin/../lib/gcc/nios2-elf/4.1.2/../../../../nios2-elf/lib\libc.a(lib_a-isattyr.o)
 .debug_line    0x0000eb4b      0x29a c:/altera/13.0sp1/nios2eds/bin/gnu/h-i686-mingw32/bin/../lib/gcc/nios2-elf/4.1.2/../../../../nios2-elf/lib\libc.a(lib_a-lseekr.o)
 .debug_line    0x0000ede5      0x299 c:/altera/13.0sp1/nios2eds/bin/gnu/h-i686-mingw32/bin/../lib/gcc/nios2-elf/4.1.2/../../../../nios2-elf/lib\libc.a(lib_a-readr.o)
 .debug_line    0x0000f07e      0x2f2 c:/altera/13.0sp1/nios2eds/bin/gnu/h-i686-mingw32/bin/../lib/gcc/nios2-elf/4.1.2\libgcc.a(_udivdi3.o)
 .debug_line    0x0000f370      0x37d c:/altera/13.0sp1/nios2eds/bin/gnu/h-i686-mingw32/bin/../lib/gcc/nios2-elf/4.1.2\libgcc.a(_umoddi3.o)
 .debug_line    0x0000f6ed      0x430 c:/altera/13.0sp1/nios2eds/bin/gnu/h-i686-mingw32/bin/../lib/gcc/nios2-elf/4.1.2\libgcc.a(_addsub_df.o)
 .debug_line    0x0000fb1d      0x3e5 c:/altera/13.0sp1/nios2eds/bin/gnu/h-i686-mingw32/bin/../lib/gcc/nios2-elf/4.1.2\libgcc.a(_mul_df.o)
 .debug_line    0x0000ff02      0x301 c:/altera/13.0sp1/nios2eds/bin/gnu/h-i686-mingw32/bin/../lib/gcc/nios2-elf/4.1.2\libgcc.a(_div_df.o)
 .debug_line    0x00010203      0x129 c:/altera/13.0sp1/nios2eds/bin/gnu/h-i686-mingw32/bin/../lib/gcc/nios2-elf/4.1.2\libgcc.a(_eq_df.o)
 .debug_line    0x0001032c      0x129 c:/altera/13.0sp1/nios2eds/bin/gnu/h-i686-mingw32/bin/../lib/gcc/nios2-elf/4.1.2\libgcc.a(_ne_df.o)
 .debug_line    0x00010455      0x129 c:/altera/13.0sp1/nios2eds/bin/gnu/h-i686-mingw32/bin/../lib/gcc/nios2-elf/4.1.2\libgcc.a(_gt_df.o)
 .debug_line    0x0001057e      0x129 c:/altera/13.0sp1/nios2eds/bin/gnu/h-i686-mingw32/bin/../lib/gcc/nios2-elf/4.1.2\libgcc.a(_ge_df.o)
 .debug_line    0x000106a7      0x129 c:/altera/13.0sp1/nios2eds/bin/gnu/h-i686-mingw32/bin/../lib/gcc/nios2-elf/4.1.2\libgcc.a(_lt_df.o)
 .debug_line    0x000107d0      0x175 c:/altera/13.0sp1/nios2eds/bin/gnu/h-i686-mingw32/bin/../lib/gcc/nios2-elf/4.1.2\libgcc.a(_si_to_df.o)
 .debug_line    0x00010945      0x149 c:/altera/13.0sp1/nios2eds/bin/gnu/h-i686-mingw32/bin/../lib/gcc/nios2-elf/4.1.2\libgcc.a(_df_to_si.o)
 .debug_line    0x00010a8e       0x94 c:/altera/13.0sp1/nios2eds/bin/gnu/h-i686-mingw32/bin/../lib/gcc/nios2-elf/4.1.2\libgcc.a(_thenan_df.o)
 .debug_line    0x00010b22      0x189 c:/altera/13.0sp1/nios2eds/bin/gnu/h-i686-mingw32/bin/../lib/gcc/nios2-elf/4.1.2\libgcc.a(_usi_to_df.o)
 .debug_line    0x00010cab      0x11f c:/altera/13.0sp1/nios2eds/bin/gnu/h-i686-mingw32/bin/../lib/gcc/nios2-elf/4.1.2\libgcc.a(_muldi3.o)
 .debug_line    0x00010dca       0xaa c:/altera/13.0sp1/nios2eds/bin/gnu/h-i686-mingw32/bin/../lib/gcc/nios2-elf/4.1.2\libgcc.a(_clz.o)
 .debug_line    0x00010e74      0x105 c:/altera/13.0sp1/nios2eds/bin/gnu/h-i686-mingw32/bin/../lib/gcc/nios2-elf/4.1.2\libgcc.a(_clzsi2.o)
 .debug_line    0x00010f79      0x222 c:/altera/13.0sp1/nios2eds/bin/gnu/h-i686-mingw32/bin/../lib/gcc/nios2-elf/4.1.2\libgcc.a(_pack_df.o)
 .debug_line    0x0001119b      0x1e4 c:/altera/13.0sp1/nios2eds/bin/gnu/h-i686-mingw32/bin/../lib/gcc/nios2-elf/4.1.2\libgcc.a(_unpack_df.o)
 .debug_line    0x0001137f      0x187 c:/altera/13.0sp1/nios2eds/bin/gnu/h-i686-mingw32/bin/../lib/gcc/nios2-elf/4.1.2\libgcc.a(_fpcmp_parts_df.o)
 .debug_line    0x00011506      0x2e5 ../lab5_bsp/\libucosii_bsp.a(alt_close.o)
 .debug_line    0x000117eb      0x1b5 ../lab5_bsp/\libucosii_bsp.a(alt_dcache_flush_all.o)
 .debug_line    0x000119a0      0x2b2 ../lab5_bsp/\libucosii_bsp.a(alt_dev.o)
 .debug_line    0x00011c52      0x1aa ../lab5_bsp/\libucosii_bsp.a(alt_errno.o)
 .debug_line    0x00011dfc      0x2e3 ../lab5_bsp/\libucosii_bsp.a(alt_fstat.o)
 .debug_line    0x000120df      0x27f ../lab5_bsp/\libucosii_bsp.a(alt_iic.o)
 .debug_line    0x0001235e      0x221 ../lab5_bsp/\libucosii_bsp.a(alt_iic_isr_register.o)
 .debug_line    0x0001257f       0x6b ../lab5_bsp/\libucosii_bsp.a(alt_irq_entry.o)
 .debug_line    0x000125ea      0x2a3 ../lab5_bsp/\libucosii_bsp.a(alt_irq_handler.o)
 .debug_line    0x0001288d       0x72 ../lab5_bsp/\libucosii_bsp.a(alt_irq_vars.o)
 .debug_line    0x000128ff      0x2e4 ../lab5_bsp/\libucosii_bsp.a(alt_isatty.o)
 .debug_line    0x00012be3      0x273 ../lab5_bsp/\libucosii_bsp.a(alt_load.o)
 .debug_line    0x00012e56      0x2cb ../lab5_bsp/\libucosii_bsp.a(alt_lseek.o)
 .debug_line    0x00013121      0x349 ../lab5_bsp/\libucosii_bsp.a(alt_main.o)
 .debug_line    0x0001346a      0x31e ../lab5_bsp/\libucosii_bsp.a(alt_read.o)
 .debug_line    0x00013788      0x271 ../lab5_bsp/\libucosii_bsp.a(alt_release_fd.o)
 .debug_line    0x000139f9      0x238 ../lab5_bsp/\libucosii_bsp.a(alt_sbrk.o)
 .debug_line    0x00013c31      0x2ec ../lab5_bsp/\libucosii_bsp.a(alt_tick.o)
 .debug_line    0x00013f1d      0x31f ../lab5_bsp/\libucosii_bsp.a(alt_write.o)
 .debug_line    0x0001423c      0x2c9 ../lab5_bsp/\libucosii_bsp.a(alt_env_lock.o)
 .debug_line    0x00014505      0x33f ../lab5_bsp/\libucosii_bsp.a(alt_malloc_lock.o)
 .debug_line    0x00014844     0x120c ../lab5_bsp/\libucosii_bsp.a(os_core.o)
 .debug_line    0x00015a50      0x218 ../lab5_bsp/\libucosii_bsp.a(os_dbg.o)
 .debug_line    0x00015c68      0xe89 ../lab5_bsp/\libucosii_bsp.a(os_flag.o)
 .debug_line    0x00016af1      0x621 ../lab5_bsp/\libucosii_bsp.a(os_mem.o)
 .debug_line    0x00017112      0xb97 ../lab5_bsp/\libucosii_bsp.a(os_q.o)
 .debug_line    0x00017ca9      0x81d ../lab5_bsp/\libucosii_bsp.a(os_sem.o)
 .debug_line    0x000184c6      0xdf7 ../lab5_bsp/\libucosii_bsp.a(os_task.o)
 .debug_line    0x000192bd      0x46c ../lab5_bsp/\libucosii_bsp.a(os_time.o)
 .debug_line    0x00019729      0x2ed ../lab5_bsp/\libucosii_bsp.a(alt_sys_init.o)
 .debug_line    0x00019a16      0x2ff ../lab5_bsp/\libucosii_bsp.a(altera_avalon_jtag_uart_fd.o)
 .debug_line    0x00019d15      0x51a ../lab5_bsp/\libucosii_bsp.a(altera_avalon_jtag_uart_init.o)
 .debug_line    0x0001a22f      0x326 ../lab5_bsp/\libucosii_bsp.a(altera_avalon_jtag_uart_ioctl.o)
 .debug_line    0x0001a555      0x470 ../lab5_bsp/\libucosii_bsp.a(altera_avalon_jtag_uart_read.o)
 .debug_line    0x0001a9c5      0x47e ../lab5_bsp/\libucosii_bsp.a(altera_avalon_jtag_uart_write.o)
 .debug_line    0x0001ae43      0x29d ../lab5_bsp/\libucosii_bsp.a(altera_avalon_timer_sc.o)
 .debug_line    0x0001b0e0      0x28a ../lab5_bsp/\libucosii_bsp.a(alt_alarm_start.o)
 .debug_line    0x0001b36a      0x236 ../lab5_bsp/\libucosii_bsp.a(alt_dev_llist_insert.o)
 .debug_line    0x0001b5a0       0x83 ../lab5_bsp/\libucosii_bsp.a(alt_do_ctors.o)
 .debug_line    0x0001b623       0x83 ../lab5_bsp/\libucosii_bsp.a(alt_do_dtors.o)
 .debug_line    0x0001b6a6       0xab ../lab5_bsp/\libucosii_bsp.a(alt_exception_entry.o)
 .debug_line    0x0001b751      0x1bd ../lab5_bsp/\libucosii_bsp.a(alt_icache_flush_all.o)
 .debug_line    0x0001b90e      0x323 ../lab5_bsp/\libucosii_bsp.a(alt_io_redirect.o)
 .debug_line    0x0001bc31      0x306 ../lab5_bsp/\libucosii_bsp.a(alt_open.o)
 .debug_line    0x0001bf37      0x1ce ../lab5_bsp/\libucosii_bsp.a(altera_nios2_qsys_irq.o)
 .debug_line    0x0001c105       0x86 ../lab5_bsp/\libucosii_bsp.a(os_cpu_a.o)
 .debug_line    0x0001c18b      0x31b ../lab5_bsp/\libucosii_bsp.a(os_cpu_c.o)
 .debug_line    0x0001c4a6      0x2ca ../lab5_bsp/\libucosii_bsp.a(alt_find_dev.o)
 .debug_line    0x0001c770      0x2db ../lab5_bsp/\libucosii_bsp.a(alt_find_file.o)
 .debug_line    0x0001ca4b      0x2eb ../lab5_bsp/\libucosii_bsp.a(alt_get_fd.o)
 .debug_line    0x0001cd36      0x1e9 ../lab5_bsp/\libucosii_bsp.a(alt_icache_flush.o)
 .debug_line    0x0001cf1f      0x200 c:/altera/13.0sp1/nios2eds/bin/gnu/h-i686-mingw32/bin/../lib/gcc/nios2-elf/4.1.2/../../../../nios2-elf/lib\libc.a(lib_a-atexit.o)
 .debug_line    0x0001d11f      0x238 c:/altera/13.0sp1/nios2eds/bin/gnu/h-i686-mingw32/bin/../lib/gcc/nios2-elf/4.1.2/../../../../nios2-elf/lib\libc.a(lib_a-exit.o)
 .debug_line    0x0001d357      0x29f c:/altera/13.0sp1/nios2eds/bin/gnu/h-i686-mingw32/bin/../lib/gcc/nios2-elf/4.1.2/../../../../nios2-elf/lib\libc.a(lib_a-memcmp.o)
 .debug_line    0x0001d5f6      0x313 c:/altera/13.0sp1/nios2eds/bin/gnu/h-i686-mingw32/bin/../lib/gcc/nios2-elf/4.1.2/../../../../nios2-elf/lib\libc.a(lib_a-__atexit.o)
 .debug_line    0x0001d909      0x367 c:/altera/13.0sp1/nios2eds/bin/gnu/h-i686-mingw32/bin/../lib/gcc/nios2-elf/4.1.2/../../../../nios2-elf/lib\libc.a(lib_a-__call_atexit.o)
 .debug_line    0x0001dc70       0xff c:/altera/13.0sp1/nios2eds/bin/gnu/h-i686-mingw32/bin/../lib/gcc/nios2-elf/4.1.2\libgcc.a(_fixunsdfsi.o)
 .debug_line    0x0001dd6f      0x24c ../lab5_bsp/\libucosii_bsp.a(alt_exit.o)

.debug_frame    0x00000000     0x29b8
 *(.debug_frame)
 .debug_frame   0x00000000      0x1cc obj/default/drivers/drivers.o
 .debug_frame   0x000001cc       0x54 obj/default/frame.o
 .debug_frame   0x00000220       0xc8 obj/default/graphic_lib/draw_gimps.o
 .debug_frame   0x000002e8       0xd0 obj/default/graphic_lib/gimp_bmp.o
 .debug_frame   0x000003b8      0x384 obj/default/graphic_lib/simple_graphics.o
 .debug_frame   0x0000073c       0xdc obj/default/graphic_lib/simple_text.o
 .debug_frame   0x00000818       0xdc obj/default/hello_ucosii.o
 .debug_frame   0x000008f4       0x38 obj/default/student_code/student_code.o
 .debug_frame   0x0000092c      0x110 obj/default/vip_fr.o
 .debug_frame   0x00000a3c       0x28 c:/altera/13.0sp1/nios2eds/bin/gnu/h-i686-mingw32/bin/../lib/gcc/nios2-elf/4.1.2\libgcc.a(_sf_to_si.o)
 .debug_frame   0x00000a64       0x70 c:/altera/13.0sp1/nios2eds/bin/gnu/h-i686-mingw32/bin/../lib/gcc/nios2-elf/4.1.2\libgcc.a(lib2-divmod.o)
 .debug_frame   0x00000ad4       0x20 c:/altera/13.0sp1/nios2eds/bin/gnu/h-i686-mingw32/bin/../lib/gcc/nios2-elf/4.1.2\libgcc.a(_unpack_sf.o)
 .debug_frame   0x00000af4       0x30 c:/altera/13.0sp1/nios2eds/bin/gnu/h-i686-mingw32/bin/../lib/gcc/nios2-elf/4.1.2/../../../../nios2-elf/lib\libc.a(lib_a-malloc.o)
 .debug_frame   0x00000b24       0x38 c:/altera/13.0sp1/nios2eds/bin/gnu/h-i686-mingw32/bin/../lib/gcc/nios2-elf/4.1.2/../../../../nios2-elf/lib\libc.a(lib_a-mallocr.o)
 .debug_frame   0x00000b5c       0x20 c:/altera/13.0sp1/nios2eds/bin/gnu/h-i686-mingw32/bin/../lib/gcc/nios2-elf/4.1.2/../../../../nios2-elf/lib\libc.a(lib_a-memcpy.o)
 .debug_frame   0x00000b7c       0x20 c:/altera/13.0sp1/nios2eds/bin/gnu/h-i686-mingw32/bin/../lib/gcc/nios2-elf/4.1.2/../../../../nios2-elf/lib\libc.a(lib_a-memset.o)
 .debug_frame   0x00000b9c       0x40 c:/altera/13.0sp1/nios2eds/bin/gnu/h-i686-mingw32/bin/../lib/gcc/nios2-elf/4.1.2/../../../../nios2-elf/lib\libc.a(lib_a-printf.o)
 .debug_frame   0x00000bdc       0x2c c:/altera/13.0sp1/nios2eds/bin/gnu/h-i686-mingw32/bin/../lib/gcc/nios2-elf/4.1.2/../../../../nios2-elf/lib\libc.a(lib_a-sbrkr.o)
 .debug_frame   0x00000c08       0x20 c:/altera/13.0sp1/nios2eds/bin/gnu/h-i686-mingw32/bin/../lib/gcc/nios2-elf/4.1.2/../../../../nios2-elf/lib\libc.a(lib_a-strcpy.o)
 .debug_frame   0x00000c28       0x20 c:/altera/13.0sp1/nios2eds/bin/gnu/h-i686-mingw32/bin/../lib/gcc/nios2-elf/4.1.2/../../../../nios2-elf/lib\libc.a(lib_a-strlen.o)
 .debug_frame   0x00000c48       0x64 c:/altera/13.0sp1/nios2eds/bin/gnu/h-i686-mingw32/bin/../lib/gcc/nios2-elf/4.1.2/../../../../nios2-elf/lib\libc.a(lib_a-vfprintf.o)
 .debug_frame   0x00000cac       0x2c c:/altera/13.0sp1/nios2eds/bin/gnu/h-i686-mingw32/bin/../lib/gcc/nios2-elf/4.1.2/../../../../nios2-elf/lib\libc.a(lib_a-wsetup.o)
 .debug_frame   0x00000cd8       0x64 c:/altera/13.0sp1/nios2eds/bin/gnu/h-i686-mingw32/bin/../lib/gcc/nios2-elf/4.1.2/../../../../nios2-elf/lib\libc.a(lib_a-dtoa.o)
 .debug_frame   0x00000d3c       0x40 c:/altera/13.0sp1/nios2eds/bin/gnu/h-i686-mingw32/bin/../lib/gcc/nios2-elf/4.1.2/../../../../nios2-elf/lib\libc.a(lib_a-fflush.o)
 .debug_frame   0x00000d7c      0x118 c:/altera/13.0sp1/nios2eds/bin/gnu/h-i686-mingw32/bin/../lib/gcc/nios2-elf/4.1.2/../../../../nios2-elf/lib\libc.a(lib_a-findfp.o)
 .debug_frame   0x00000e94       0x4c c:/altera/13.0sp1/nios2eds/bin/gnu/h-i686-mingw32/bin/../lib/gcc/nios2-elf/4.1.2/../../../../nios2-elf/lib\libc.a(lib_a-freer.o)
 .debug_frame   0x00000ee0       0x38 c:/altera/13.0sp1/nios2eds/bin/gnu/h-i686-mingw32/bin/../lib/gcc/nios2-elf/4.1.2/../../../../nios2-elf/lib\libc.a(lib_a-fvwrite.o)
 .debug_frame   0x00000f18       0x60 c:/altera/13.0sp1/nios2eds/bin/gnu/h-i686-mingw32/bin/../lib/gcc/nios2-elf/4.1.2/../../../../nios2-elf/lib\libc.a(lib_a-fwalk.o)
 .debug_frame   0x00000f78       0x70 c:/altera/13.0sp1/nios2eds/bin/gnu/h-i686-mingw32/bin/../lib/gcc/nios2-elf/4.1.2/../../../../nios2-elf/lib\libc.a(lib_a-locale.o)
 .debug_frame   0x00000fe8       0x2c c:/altera/13.0sp1/nios2eds/bin/gnu/h-i686-mingw32/bin/../lib/gcc/nios2-elf/4.1.2/../../../../nios2-elf/lib\libc.a(lib_a-makebuf.o)
 .debug_frame   0x00001014       0x20 c:/altera/13.0sp1/nios2eds/bin/gnu/h-i686-mingw32/bin/../lib/gcc/nios2-elf/4.1.2/../../../../nios2-elf/lib\libc.a(lib_a-memchr.o)
 .debug_frame   0x00001034       0x20 c:/altera/13.0sp1/nios2eds/bin/gnu/h-i686-mingw32/bin/../lib/gcc/nios2-elf/4.1.2/../../../../nios2-elf/lib\libc.a(lib_a-memmove.o)
 .debug_frame   0x00001054      0x218 c:/altera/13.0sp1/nios2eds/bin/gnu/h-i686-mingw32/bin/../lib/gcc/nios2-elf/4.1.2/../../../../nios2-elf/lib\libc.a(lib_a-mprec.o)
 .debug_frame   0x0000126c       0x38 c:/altera/13.0sp1/nios2eds/bin/gnu/h-i686-mingw32/bin/../lib/gcc/nios2-elf/4.1.2/../../../../nios2-elf/lib\libc.a(lib_a-reallocr.o)
 .debug_frame   0x000012a4       0x20 c:/altera/13.0sp1/nios2eds/bin/gnu/h-i686-mingw32/bin/../lib/gcc/nios2-elf/4.1.2/../../../../nios2-elf/lib\libc.a(lib_a-s_isinfd.o)
 .debug_frame   0x000012c4       0x20 c:/altera/13.0sp1/nios2eds/bin/gnu/h-i686-mingw32/bin/../lib/gcc/nios2-elf/4.1.2/../../../../nios2-elf/lib\libc.a(lib_a-s_isnand.o)
 .debug_frame   0x000012e4       0x78 c:/altera/13.0sp1/nios2eds/bin/gnu/h-i686-mingw32/bin/../lib/gcc/nios2-elf/4.1.2/../../../../nios2-elf/lib\libc.a(lib_a-stdio.o)
 .debug_frame   0x0000135c       0x20 c:/altera/13.0sp1/nios2eds/bin/gnu/h-i686-mingw32/bin/../lib/gcc/nios2-elf/4.1.2/../../../../nios2-elf/lib\libc.a(lib_a-strcmp.o)
 .debug_frame   0x0000137c       0x2c c:/altera/13.0sp1/nios2eds/bin/gnu/h-i686-mingw32/bin/../lib/gcc/nios2-elf/4.1.2/../../../../nios2-elf/lib\libc.a(lib_a-writer.o)
 .debug_frame   0x000013a8       0x28 c:/altera/13.0sp1/nios2eds/bin/gnu/h-i686-mingw32/bin/../lib/gcc/nios2-elf/4.1.2/../../../../nios2-elf/lib\libc.a(lib_a-callocr.o)
 .debug_frame   0x000013d0       0x2c c:/altera/13.0sp1/nios2eds/bin/gnu/h-i686-mingw32/bin/../lib/gcc/nios2-elf/4.1.2/../../../../nios2-elf/lib\libc.a(lib_a-closer.o)
 .debug_frame   0x000013fc       0x3c c:/altera/13.0sp1/nios2eds/bin/gnu/h-i686-mingw32/bin/../lib/gcc/nios2-elf/4.1.2/../../../../nios2-elf/lib\libc.a(lib_a-fclose.o)
 .debug_frame   0x00001438       0x2c c:/altera/13.0sp1/nios2eds/bin/gnu/h-i686-mingw32/bin/../lib/gcc/nios2-elf/4.1.2/../../../../nios2-elf/lib\libc.a(lib_a-fstatr.o)
 .debug_frame   0x00001464       0x2c c:/altera/13.0sp1/nios2eds/bin/gnu/h-i686-mingw32/bin/../lib/gcc/nios2-elf/4.1.2/../../../../nios2-elf/lib\libc.a(lib_a-isattyr.o)
 .debug_frame   0x00001490       0x2c c:/altera/13.0sp1/nios2eds/bin/gnu/h-i686-mingw32/bin/../lib/gcc/nios2-elf/4.1.2/../../../../nios2-elf/lib\libc.a(lib_a-lseekr.o)
 .debug_frame   0x000014bc       0x2c c:/altera/13.0sp1/nios2eds/bin/gnu/h-i686-mingw32/bin/../lib/gcc/nios2-elf/4.1.2/../../../../nios2-elf/lib\libc.a(lib_a-readr.o)
 .debug_frame   0x000014e8       0x38 c:/altera/13.0sp1/nios2eds/bin/gnu/h-i686-mingw32/bin/../lib/gcc/nios2-elf/4.1.2\libgcc.a(_udivdi3.o)
 .debug_frame   0x00001520       0x38 c:/altera/13.0sp1/nios2eds/bin/gnu/h-i686-mingw32/bin/../lib/gcc/nios2-elf/4.1.2\libgcc.a(_umoddi3.o)
 .debug_frame   0x00001558       0x70 c:/altera/13.0sp1/nios2eds/bin/gnu/h-i686-mingw32/bin/../lib/gcc/nios2-elf/4.1.2\libgcc.a(_addsub_df.o)
 .debug_frame   0x000015c8       0x3c c:/altera/13.0sp1/nios2eds/bin/gnu/h-i686-mingw32/bin/../lib/gcc/nios2-elf/4.1.2\libgcc.a(_mul_df.o)
 .debug_frame   0x00001604       0x30 c:/altera/13.0sp1/nios2eds/bin/gnu/h-i686-mingw32/bin/../lib/gcc/nios2-elf/4.1.2\libgcc.a(_div_df.o)
 .debug_frame   0x00001634       0x2c c:/altera/13.0sp1/nios2eds/bin/gnu/h-i686-mingw32/bin/../lib/gcc/nios2-elf/4.1.2\libgcc.a(_eq_df.o)
 .debug_frame   0x00001660       0x2c c:/altera/13.0sp1/nios2eds/bin/gnu/h-i686-mingw32/bin/../lib/gcc/nios2-elf/4.1.2\libgcc.a(_ne_df.o)
 .debug_frame   0x0000168c       0x2c c:/altera/13.0sp1/nios2eds/bin/gnu/h-i686-mingw32/bin/../lib/gcc/nios2-elf/4.1.2\libgcc.a(_gt_df.o)
 .debug_frame   0x000016b8       0x2c c:/altera/13.0sp1/nios2eds/bin/gnu/h-i686-mingw32/bin/../lib/gcc/nios2-elf/4.1.2\libgcc.a(_ge_df.o)
 .debug_frame   0x000016e4       0x2c c:/altera/13.0sp1/nios2eds/bin/gnu/h-i686-mingw32/bin/../lib/gcc/nios2-elf/4.1.2\libgcc.a(_lt_df.o)
 .debug_frame   0x00001710       0x30 c:/altera/13.0sp1/nios2eds/bin/gnu/h-i686-mingw32/bin/../lib/gcc/nios2-elf/4.1.2\libgcc.a(_si_to_df.o)
 .debug_frame   0x00001740       0x28 c:/altera/13.0sp1/nios2eds/bin/gnu/h-i686-mingw32/bin/../lib/gcc/nios2-elf/4.1.2\libgcc.a(_df_to_si.o)
 .debug_frame   0x00001768       0x38 c:/altera/13.0sp1/nios2eds/bin/gnu/h-i686-mingw32/bin/../lib/gcc/nios2-elf/4.1.2\libgcc.a(_usi_to_df.o)
 .debug_frame   0x000017a0       0x2c c:/altera/13.0sp1/nios2eds/bin/gnu/h-i686-mingw32/bin/../lib/gcc/nios2-elf/4.1.2\libgcc.a(_muldi3.o)
 .debug_frame   0x000017cc       0x20 c:/altera/13.0sp1/nios2eds/bin/gnu/h-i686-mingw32/bin/../lib/gcc/nios2-elf/4.1.2\libgcc.a(_clzsi2.o)
 .debug_frame   0x000017ec       0x2c c:/altera/13.0sp1/nios2eds/bin/gnu/h-i686-mingw32/bin/../lib/gcc/nios2-elf/4.1.2\libgcc.a(_pack_df.o)
 .debug_frame   0x00001818       0x20 c:/altera/13.0sp1/nios2eds/bin/gnu/h-i686-mingw32/bin/../lib/gcc/nios2-elf/4.1.2\libgcc.a(_unpack_df.o)
 .debug_frame   0x00001838       0x20 c:/altera/13.0sp1/nios2eds/bin/gnu/h-i686-mingw32/bin/../lib/gcc/nios2-elf/4.1.2\libgcc.a(_fpcmp_parts_df.o)
 .debug_frame   0x00001858       0x2c ../lab5_bsp/\libucosii_bsp.a(alt_close.o)
 .debug_frame   0x00001884       0x20 ../lab5_bsp/\libucosii_bsp.a(alt_dcache_flush_all.o)
 .debug_frame   0x000018a4       0x20 ../lab5_bsp/\libucosii_bsp.a(alt_dev.o)
 .debug_frame   0x000018c4       0x28 ../lab5_bsp/\libucosii_bsp.a(alt_fstat.o)
 .debug_frame   0x000018ec       0x58 ../lab5_bsp/\libucosii_bsp.a(alt_iic.o)
 .debug_frame   0x00001944       0x28 ../lab5_bsp/\libucosii_bsp.a(alt_iic_isr_register.o)
 .debug_frame   0x0000196c       0x28 ../lab5_bsp/\libucosii_bsp.a(alt_irq_handler.o)
 .debug_frame   0x00001994       0x28 ../lab5_bsp/\libucosii_bsp.a(alt_isatty.o)
 .debug_frame   0x000019bc       0x28 ../lab5_bsp/\libucosii_bsp.a(alt_load.o)
 .debug_frame   0x000019e4       0x28 ../lab5_bsp/\libucosii_bsp.a(alt_lseek.o)
 .debug_frame   0x00001a0c       0x2c ../lab5_bsp/\libucosii_bsp.a(alt_main.o)
 .debug_frame   0x00001a38       0x28 ../lab5_bsp/\libucosii_bsp.a(alt_read.o)
 .debug_frame   0x00001a60       0x20 ../lab5_bsp/\libucosii_bsp.a(alt_release_fd.o)
 .debug_frame   0x00001a80       0x20 ../lab5_bsp/\libucosii_bsp.a(alt_sbrk.o)
 .debug_frame   0x00001aa0       0x3c ../lab5_bsp/\libucosii_bsp.a(alt_tick.o)
 .debug_frame   0x00001adc       0x28 ../lab5_bsp/\libucosii_bsp.a(alt_write.o)
 .debug_frame   0x00001b04       0x40 ../lab5_bsp/\libucosii_bsp.a(alt_env_lock.o)
 .debug_frame   0x00001b44       0x44 ../lab5_bsp/\libucosii_bsp.a(alt_malloc_lock.o)
 .debug_frame   0x00001b88      0x280 ../lab5_bsp/\libucosii_bsp.a(os_core.o)
 .debug_frame   0x00001e08       0x20 ../lab5_bsp/\libucosii_bsp.a(os_dbg.o)
 .debug_frame   0x00001e28      0x144 ../lab5_bsp/\libucosii_bsp.a(os_flag.o)
 .debug_frame   0x00001f6c       0xa4 ../lab5_bsp/\libucosii_bsp.a(os_mem.o)
 .debug_frame   0x00002010      0x11c ../lab5_bsp/\libucosii_bsp.a(os_q.o)
 .debug_frame   0x0000212c       0xcc ../lab5_bsp/\libucosii_bsp.a(os_sem.o)
 .debug_frame   0x000021f8      0x140 ../lab5_bsp/\libucosii_bsp.a(os_task.o)
 .debug_frame   0x00002338       0x80 ../lab5_bsp/\libucosii_bsp.a(os_time.o)
 .debug_frame   0x000023b8       0x40 ../lab5_bsp/\libucosii_bsp.a(alt_sys_init.o)
 .debug_frame   0x000023f8       0x70 ../lab5_bsp/\libucosii_bsp.a(altera_avalon_jtag_uart_fd.o)
 .debug_frame   0x00002468       0x7c ../lab5_bsp/\libucosii_bsp.a(altera_avalon_jtag_uart_init.o)
 .debug_frame   0x000024e4       0x20 ../lab5_bsp/\libucosii_bsp.a(altera_avalon_jtag_uart_ioctl.o)
 .debug_frame   0x00002504       0x38 ../lab5_bsp/\libucosii_bsp.a(altera_avalon_jtag_uart_read.o)
 .debug_frame   0x0000253c       0x38 ../lab5_bsp/\libucosii_bsp.a(altera_avalon_jtag_uart_write.o)
 .debug_frame   0x00002574       0x40 ../lab5_bsp/\libucosii_bsp.a(altera_avalon_timer_sc.o)
 .debug_frame   0x000025b4       0x20 ../lab5_bsp/\libucosii_bsp.a(alt_alarm_start.o)
 .debug_frame   0x000025d4       0x28 ../lab5_bsp/\libucosii_bsp.a(alt_dev_llist_insert.o)
 .debug_frame   0x000025fc       0x2c ../lab5_bsp/\libucosii_bsp.a(alt_do_ctors.o)
 .debug_frame   0x00002628       0x2c ../lab5_bsp/\libucosii_bsp.a(alt_do_dtors.o)
 .debug_frame   0x00002654       0x28 ../lab5_bsp/\libucosii_bsp.a(alt_icache_flush_all.o)
 .debug_frame   0x0000267c       0x48 ../lab5_bsp/\libucosii_bsp.a(alt_io_redirect.o)
 .debug_frame   0x000026c4       0x34 ../lab5_bsp/\libucosii_bsp.a(alt_open.o)
 .debug_frame   0x000026f8       0x20 ../lab5_bsp/\libucosii_bsp.a(altera_nios2_qsys_irq.o)
 .debug_frame   0x00002718       0xbc ../lab5_bsp/\libucosii_bsp.a(os_cpu_c.o)
 .debug_frame   0x000027d4       0x30 ../lab5_bsp/\libucosii_bsp.a(alt_find_dev.o)
 .debug_frame   0x00002804       0x34 ../lab5_bsp/\libucosii_bsp.a(alt_find_file.o)
 .debug_frame   0x00002838       0x28 ../lab5_bsp/\libucosii_bsp.a(alt_get_fd.o)
 .debug_frame   0x00002860       0x20 ../lab5_bsp/\libucosii_bsp.a(alt_icache_flush.o)
 .debug_frame   0x00002880       0x20 c:/altera/13.0sp1/nios2eds/bin/gnu/h-i686-mingw32/bin/../lib/gcc/nios2-elf/4.1.2/../../../../nios2-elf/lib\libc.a(lib_a-atexit.o)
 .debug_frame   0x000028a0       0x28 c:/altera/13.0sp1/nios2eds/bin/gnu/h-i686-mingw32/bin/../lib/gcc/nios2-elf/4.1.2/../../../../nios2-elf/lib\libc.a(lib_a-exit.o)
 .debug_frame   0x000028c8       0x20 c:/altera/13.0sp1/nios2eds/bin/gnu/h-i686-mingw32/bin/../lib/gcc/nios2-elf/4.1.2/../../../../nios2-elf/lib\libc.a(lib_a-memcmp.o)
 .debug_frame   0x000028e8       0x34 c:/altera/13.0sp1/nios2eds/bin/gnu/h-i686-mingw32/bin/../lib/gcc/nios2-elf/4.1.2/../../../../nios2-elf/lib\libc.a(lib_a-__atexit.o)
 .debug_frame   0x0000291c       0x4c c:/altera/13.0sp1/nios2eds/bin/gnu/h-i686-mingw32/bin/../lib/gcc/nios2-elf/4.1.2/../../../../nios2-elf/lib\libc.a(lib_a-__call_atexit.o)
 .debug_frame   0x00002968       0x30 c:/altera/13.0sp1/nios2eds/bin/gnu/h-i686-mingw32/bin/../lib/gcc/nios2-elf/4.1.2\libgcc.a(_fixunsdfsi.o)
 .debug_frame   0x00002998       0x20 ../lab5_bsp/\libucosii_bsp.a(alt_exit.o)

.debug_str      0x00000000     0x5ad9
 *(.debug_str)
 .debug_str     0x00000000      0x1ed obj/default/drivers/drivers.o
                                0x245 (size before relaxing)
 .debug_str     0x000001ed      0x6fc obj/default/fonts/tahomabold_20.o
                                0x747 (size before relaxing)
 .debug_str     0x000008e9      0x67d obj/default/fonts/tahomabold_32.o
                                0x747 (size before relaxing)
 .debug_str     0x00000f66       0x8b obj/default/frame.o
                                0x147 (size before relaxing)
 .debug_str     0x00000ff1      0x1e2 obj/default/graphic_lib/draw_gimps.o
                                0x318 (size before relaxing)
 .debug_str     0x000011d3      0x1bb obj/default/graphic_lib/gimp_bmp.o
                                0x2e8 (size before relaxing)
 .debug_str     0x0000138e      0x65a obj/default/graphic_lib/simple_graphics.o
                                0x84b (size before relaxing)
 .debug_str     0x000019e8      0x16b obj/default/graphic_lib/simple_text.o
                                0x3de (size before relaxing)
 .debug_str     0x00001b53      0x177 obj/default/hello_ucosii.o
                                0x3d1 (size before relaxing)
 .debug_str     0x00001cca       0x15 obj/default/imagenes/back_down.o
                                 0x9f (size before relaxing)
 .debug_str     0x00001cdf       0x13 obj/default/imagenes/back_up.o
                                 0x9b (size before relaxing)
 .debug_str     0x00001cf2       0x15 obj/default/imagenes/ford_down.o
                                 0x9f (size before relaxing)
 .debug_str     0x00001d07       0x13 obj/default/imagenes/ford_up.o
                                 0x9b (size before relaxing)
 .debug_str     0x00001d1a       0x16 obj/default/imagenes/pause_down.o
                                 0xa1 (size before relaxing)
 .debug_str     0x00001d30       0x14 obj/default/imagenes/pause_up.o
                                 0x9d (size before relaxing)
 .debug_str     0x00001d44       0x15 obj/default/imagenes/play_down.o
                                 0x9f (size before relaxing)
 .debug_str     0x00001d59       0x13 obj/default/imagenes/play_up.o
                                 0x9b (size before relaxing)
 .debug_str     0x00001d6c       0x15 obj/default/imagenes/stop_down.o
                                 0x9f (size before relaxing)
 .debug_str     0x00001d81       0x13 obj/default/imagenes/stop_up.o
                                 0x9b (size before relaxing)
 .debug_str     0x00001d94        0xc obj/default/song/song.o
                                 0x73 (size before relaxing)
 .debug_str     0x00001da0       0x73 obj/default/student_code/student_code.o
                                0x12f (size before relaxing)
 .debug_str     0x00001e13      0x131 obj/default/vip_fr.o
                                0x2b7 (size before relaxing)
 .debug_str     0x00001f44      0x14e c:/altera/13.0sp1/nios2eds/bin/gnu/h-i686-mingw32/bin/../lib/gcc/nios2-elf/4.1.2\libgcc.a(_sf_to_si.o)
                                0x201 (size before relaxing)
 .debug_str     0x00002092       0x93 c:/altera/13.0sp1/nios2eds/bin/gnu/h-i686-mingw32/bin/../lib/gcc/nios2-elf/4.1.2\libgcc.a(lib2-divmod.o)
                                0x1b4 (size before relaxing)
 .debug_str     0x00002125        0xb c:/altera/13.0sp1/nios2eds/bin/gnu/h-i686-mingw32/bin/../lib/gcc/nios2-elf/4.1.2\libgcc.a(_unpack_sf.o)
                                0x1e2 (size before relaxing)
 .debug_str     0x00002130      0x3ff c:/altera/13.0sp1/nios2eds/bin/gnu/h-i686-mingw32/bin/../lib/gcc/nios2-elf/4.1.2/../../../../nios2-elf/lib\libc.a(lib_a-malloc.o)
                                0x51c (size before relaxing)
 .debug_str     0x0000252f      0x202 c:/altera/13.0sp1/nios2eds/bin/gnu/h-i686-mingw32/bin/../lib/gcc/nios2-elf/4.1.2/../../../../nios2-elf/lib\libc.a(lib_a-mallocr.o)
                                0x6f1 (size before relaxing)
 .debug_str     0x00002731       0xf5 c:/altera/13.0sp1/nios2eds/bin/gnu/h-i686-mingw32/bin/../lib/gcc/nios2-elf/4.1.2/../../../../nios2-elf/lib\libc.a(lib_a-memcpy.o)
                                0x128 (size before relaxing)
 .debug_str     0x00002826       0x4f c:/altera/13.0sp1/nios2eds/bin/gnu/h-i686-mingw32/bin/../lib/gcc/nios2-elf/4.1.2/../../../../nios2-elf/lib\libc.a(lib_a-memset.o)
                                0x17e (size before relaxing)
 .debug_str     0x00002875       0xde c:/altera/13.0sp1/nios2eds/bin/gnu/h-i686-mingw32/bin/../lib/gcc/nios2-elf/4.1.2/../../../../nios2-elf/lib\libc.a(lib_a-printf.o)
                                0x523 (size before relaxing)
 .debug_str     0x00002953       0xd6 c:/altera/13.0sp1/nios2eds/bin/gnu/h-i686-mingw32/bin/../lib/gcc/nios2-elf/4.1.2/../../../../nios2-elf/lib\libc.a(lib_a-sbrkr.o)
                                0x50b (size before relaxing)
 .debug_str     0x00002a29       0x42 c:/altera/13.0sp1/nios2eds/bin/gnu/h-i686-mingw32/bin/../lib/gcc/nios2-elf/4.1.2/../../../../nios2-elf/lib\libc.a(lib_a-strcpy.o)
                                0x185 (size before relaxing)
 .debug_str     0x00002a6b       0x42 c:/altera/13.0sp1/nios2eds/bin/gnu/h-i686-mingw32/bin/../lib/gcc/nios2-elf/4.1.2/../../../../nios2-elf/lib\libc.a(lib_a-strlen.o)
                                0x17d (size before relaxing)
 .debug_str     0x00002aad      0x1b4 c:/altera/13.0sp1/nios2eds/bin/gnu/h-i686-mingw32/bin/../lib/gcc/nios2-elf/4.1.2/../../../../nios2-elf/lib\libc.a(lib_a-vfprintf.o)
                                0x6f8 (size before relaxing)
 .debug_str     0x00002c61       0x46 c:/altera/13.0sp1/nios2eds/bin/gnu/h-i686-mingw32/bin/../lib/gcc/nios2-elf/4.1.2/../../../../nios2-elf/lib\libc.a(lib_a-wsetup.o)
                                0x50c (size before relaxing)
 .debug_str     0x00002ca7       0xfc c:/altera/13.0sp1/nios2eds/bin/gnu/h-i686-mingw32/bin/../lib/gcc/nios2-elf/4.1.2/../../../../nios2-elf/lib\libc.a(lib_a-dtoa.o)
                                0x601 (size before relaxing)
 .debug_str     0x00002da3       0x65 c:/altera/13.0sp1/nios2eds/bin/gnu/h-i686-mingw32/bin/../lib/gcc/nios2-elf/4.1.2/../../../../nios2-elf/lib\libc.a(lib_a-fflush.o)
                                0x532 (size before relaxing)
 .debug_str     0x00002e08      0x102 c:/altera/13.0sp1/nios2eds/bin/gnu/h-i686-mingw32/bin/../lib/gcc/nios2-elf/4.1.2/../../../../nios2-elf/lib\libc.a(lib_a-findfp.o)
                                0x5f4 (size before relaxing)
 .debug_str     0x00002f0a       0x3c c:/altera/13.0sp1/nios2eds/bin/gnu/h-i686-mingw32/bin/../lib/gcc/nios2-elf/4.1.2/../../../../nios2-elf/lib\libc.a(lib_a-freer.o)
                                0x643 (size before relaxing)
 .debug_str     0x00002f46       0x66 c:/altera/13.0sp1/nios2eds/bin/gnu/h-i686-mingw32/bin/../lib/gcc/nios2-elf/4.1.2/../../../../nios2-elf/lib\libc.a(lib_a-fvwrite.o)
                                0x563 (size before relaxing)
 .debug_str     0x00002fac       0x5e c:/altera/13.0sp1/nios2eds/bin/gnu/h-i686-mingw32/bin/../lib/gcc/nios2-elf/4.1.2/../../../../nios2-elf/lib\libc.a(lib_a-fwalk.o)
                                0x535 (size before relaxing)
 .debug_str     0x0000300a       0x46 c:/altera/13.0sp1/nios2eds/bin/gnu/h-i686-mingw32/bin/../lib/gcc/nios2-elf/4.1.2/../../../../nios2-elf/lib\libc.a(lib_a-impure.o)
                                0x51a (size before relaxing)
 .debug_str     0x00003050       0x3d c:/altera/13.0sp1/nios2eds/bin/gnu/h-i686-mingw32/bin/../lib/gcc/nios2-elf/4.1.2/../../../../nios2-elf/lib\libc.a(lib_a-int_errno.o)
                                0x163 (size before relaxing)
 .debug_str     0x0000308d      0x225 c:/altera/13.0sp1/nios2eds/bin/gnu/h-i686-mingw32/bin/../lib/gcc/nios2-elf/4.1.2/../../../../nios2-elf/lib\libc.a(lib_a-locale.o)
                                0x6a9 (size before relaxing)
 .debug_str     0x000032b2      0x123 c:/altera/13.0sp1/nios2eds/bin/gnu/h-i686-mingw32/bin/../lib/gcc/nios2-elf/4.1.2/../../../../nios2-elf/lib\libc.a(lib_a-makebuf.o)
                                0x606 (size before relaxing)
 .debug_str     0x000033d5       0x50 c:/altera/13.0sp1/nios2eds/bin/gnu/h-i686-mingw32/bin/../lib/gcc/nios2-elf/4.1.2/../../../../nios2-elf/lib\libc.a(lib_a-memchr.o)
                                0x18b (size before relaxing)
 .debug_str     0x00003425       0x4d c:/altera/13.0sp1/nios2eds/bin/gnu/h-i686-mingw32/bin/../lib/gcc/nios2-elf/4.1.2/../../../../nios2-elf/lib\libc.a(lib_a-memmove.o)
                                0x19d (size before relaxing)
 .debug_str     0x00003472       0xf8 c:/altera/13.0sp1/nios2eds/bin/gnu/h-i686-mingw32/bin/../lib/gcc/nios2-elf/4.1.2/../../../../nios2-elf/lib\libc.a(lib_a-mprec.o)
                                0x60e (size before relaxing)
 .debug_str     0x0000356a       0x54 c:/altera/13.0sp1/nios2eds/bin/gnu/h-i686-mingw32/bin/../lib/gcc/nios2-elf/4.1.2/../../../../nios2-elf/lib\libc.a(lib_a-reallocr.o)
                                0x5c3 (size before relaxing)
 .debug_str     0x000035be       0xdc c:/altera/13.0sp1/nios2eds/bin/gnu/h-i686-mingw32/bin/../lib/gcc/nios2-elf/4.1.2/../../../../nios2-elf/lib\libc.a(lib_a-s_isinfd.o)
                                0x18a (size before relaxing)
 .debug_str     0x0000369a       0x46 c:/altera/13.0sp1/nios2eds/bin/gnu/h-i686-mingw32/bin/../lib/gcc/nios2-elf/4.1.2/../../../../nios2-elf/lib\libc.a(lib_a-s_isnand.o)
                                0x18a (size before relaxing)
 .debug_str     0x000036e0       0x62 c:/altera/13.0sp1/nios2eds/bin/gnu/h-i686-mingw32/bin/../lib/gcc/nios2-elf/4.1.2/../../../../nios2-elf/lib\libc.a(lib_a-stdio.o)
                                0x531 (size before relaxing)
 .debug_str     0x00003742       0x42 c:/altera/13.0sp1/nios2eds/bin/gnu/h-i686-mingw32/bin/../lib/gcc/nios2-elf/4.1.2/../../../../nios2-elf/lib\libc.a(lib_a-strcmp.o)
                                0x163 (size before relaxing)
 .debug_str     0x00003784       0x4c c:/altera/13.0sp1/nios2eds/bin/gnu/h-i686-mingw32/bin/../lib/gcc/nios2-elf/4.1.2/../../../../nios2-elf/lib\libc.a(lib_a-writer.o)
                                0x50e (size before relaxing)
 .debug_str     0x000037d0       0x19 c:/altera/13.0sp1/nios2eds/bin/gnu/h-i686-mingw32/bin/../lib/gcc/nios2-elf/4.1.2/../../../../nios2-elf/lib\libc.a(lib_a-callocr.o)
                                0x542 (size before relaxing)
 .debug_str     0x000037e9       0x43 c:/altera/13.0sp1/nios2eds/bin/gnu/h-i686-mingw32/bin/../lib/gcc/nios2-elf/4.1.2/../../../../nios2-elf/lib\libc.a(lib_a-closer.o)
                                0x4fe (size before relaxing)
 .debug_str     0x0000382c       0x4b c:/altera/13.0sp1/nios2eds/bin/gnu/h-i686-mingw32/bin/../lib/gcc/nios2-elf/4.1.2/../../../../nios2-elf/lib\libc.a(lib_a-fclose.o)
                                0x516 (size before relaxing)
 .debug_str     0x00003877       0x49 c:/altera/13.0sp1/nios2eds/bin/gnu/h-i686-mingw32/bin/../lib/gcc/nios2-elf/4.1.2/../../../../nios2-elf/lib\libc.a(lib_a-fstatr.o)
                                0x5f1 (size before relaxing)
 .debug_str     0x000038c0       0x45 c:/altera/13.0sp1/nios2eds/bin/gnu/h-i686-mingw32/bin/../lib/gcc/nios2-elf/4.1.2/../../../../nios2-elf/lib\libc.a(lib_a-isattyr.o)
                                0x500 (size before relaxing)
 .debug_str     0x00003905       0x43 c:/altera/13.0sp1/nios2eds/bin/gnu/h-i686-mingw32/bin/../lib/gcc/nios2-elf/4.1.2/../../../../nios2-elf/lib\libc.a(lib_a-lseekr.o)
                                0x50c (size before relaxing)
 .debug_str     0x00003948       0x41 c:/altera/13.0sp1/nios2eds/bin/gnu/h-i686-mingw32/bin/../lib/gcc/nios2-elf/4.1.2/../../../../nios2-elf/lib\libc.a(lib_a-readr.o)
                                0x50c (size before relaxing)
 .debug_str     0x00003989       0xb2 c:/altera/13.0sp1/nios2eds/bin/gnu/h-i686-mingw32/bin/../lib/gcc/nios2-elf/4.1.2\libgcc.a(_udivdi3.o)
                                0x1f7 (size before relaxing)
 .debug_str     0x00003a3b        0xa c:/altera/13.0sp1/nios2eds/bin/gnu/h-i686-mingw32/bin/../lib/gcc/nios2-elf/4.1.2\libgcc.a(_umoddi3.o)
                                0x1f7 (size before relaxing)
 .debug_str     0x00003a45       0x89 c:/altera/13.0sp1/nios2eds/bin/gnu/h-i686-mingw32/bin/../lib/gcc/nios2-elf/4.1.2\libgcc.a(_addsub_df.o)
                                0x26f (size before relaxing)
 .debug_str     0x00003ace       0x40 c:/altera/13.0sp1/nios2eds/bin/gnu/h-i686-mingw32/bin/../lib/gcc/nios2-elf/4.1.2\libgcc.a(_mul_df.o)
                                0x241 (size before relaxing)
 .debug_str     0x00003b0e       0x35 c:/altera/13.0sp1/nios2eds/bin/gnu/h-i686-mingw32/bin/../lib/gcc/nios2-elf/4.1.2\libgcc.a(_div_df.o)
                                0x231 (size before relaxing)
 .debug_str     0x00003b43        0x8 c:/altera/13.0sp1/nios2eds/bin/gnu/h-i686-mingw32/bin/../lib/gcc/nios2-elf/4.1.2\libgcc.a(_eq_df.o)
                                0x1fe (size before relaxing)
 .debug_str     0x00003b4b        0x8 c:/altera/13.0sp1/nios2eds/bin/gnu/h-i686-mingw32/bin/../lib/gcc/nios2-elf/4.1.2\libgcc.a(_ne_df.o)
                                0x1fe (size before relaxing)
 .debug_str     0x00003b53        0x8 c:/altera/13.0sp1/nios2eds/bin/gnu/h-i686-mingw32/bin/../lib/gcc/nios2-elf/4.1.2\libgcc.a(_gt_df.o)
                                0x1fe (size before relaxing)
 .debug_str     0x00003b5b        0x8 c:/altera/13.0sp1/nios2eds/bin/gnu/h-i686-mingw32/bin/../lib/gcc/nios2-elf/4.1.2\libgcc.a(_ge_df.o)
                                0x1fe (size before relaxing)
 .debug_str     0x00003b63        0x8 c:/altera/13.0sp1/nios2eds/bin/gnu/h-i686-mingw32/bin/../lib/gcc/nios2-elf/4.1.2\libgcc.a(_lt_df.o)
                                0x1fe (size before relaxing)
 .debug_str     0x00003b6b       0x18 c:/altera/13.0sp1/nios2eds/bin/gnu/h-i686-mingw32/bin/../lib/gcc/nios2-elf/4.1.2\libgcc.a(_si_to_df.o)
                                0x1de (size before relaxing)
 .debug_str     0x00003b83        0xa c:/altera/13.0sp1/nios2eds/bin/gnu/h-i686-mingw32/bin/../lib/gcc/nios2-elf/4.1.2\libgcc.a(_df_to_si.o)
                                0x207 (size before relaxing)
 .debug_str     0x00000000      0x1a3 c:/altera/13.0sp1/nios2eds/bin/gnu/h-i686-mingw32/bin/../lib/gcc/nios2-elf/4.1.2\libgcc.a(_thenan_df.o)
 .debug_str     0x00003b8d       0x14 c:/altera/13.0sp1/nios2eds/bin/gnu/h-i686-mingw32/bin/../lib/gcc/nios2-elf/4.1.2\libgcc.a(_usi_to_df.o)
                                0x1da (size before relaxing)
 .debug_str     0x00003ba1        0x9 c:/altera/13.0sp1/nios2eds/bin/gnu/h-i686-mingw32/bin/../lib/gcc/nios2-elf/4.1.2\libgcc.a(_muldi3.o)
                                0x1ac (size before relaxing)
 .debug_str     0x00000000      0x161 c:/altera/13.0sp1/nios2eds/bin/gnu/h-i686-mingw32/bin/../lib/gcc/nios2-elf/4.1.2\libgcc.a(_clz.o)
 .debug_str     0x00003baa        0x9 c:/altera/13.0sp1/nios2eds/bin/gnu/h-i686-mingw32/bin/../lib/gcc/nios2-elf/4.1.2\libgcc.a(_clzsi2.o)
                                0x17e (size before relaxing)
 .debug_str     0x00003bb3       0x10 c:/altera/13.0sp1/nios2eds/bin/gnu/h-i686-mingw32/bin/../lib/gcc/nios2-elf/4.1.2\libgcc.a(_pack_df.o)
                                0x206 (size before relaxing)
 .debug_str     0x00003bc3        0xb c:/altera/13.0sp1/nios2eds/bin/gnu/h-i686-mingw32/bin/../lib/gcc/nios2-elf/4.1.2\libgcc.a(_unpack_df.o)
                                0x1e8 (size before relaxing)
 .debug_str     0x00003bce       0x10 c:/altera/13.0sp1/nios2eds/bin/gnu/h-i686-mingw32/bin/../lib/gcc/nios2-elf/4.1.2\libgcc.a(_fpcmp_parts_df.o)
                                0x1c6 (size before relaxing)
 .debug_str     0x00003bde       0xa8 ../lab5_bsp/\libucosii_bsp.a(alt_close.o)
                                0x1d2 (size before relaxing)
 .debug_str     0x00003c86       0x34 ../lab5_bsp/\libucosii_bsp.a(alt_dcache_flush_all.o)
                                 0xec (size before relaxing)
 .debug_str     0x00003cba       0xc4 ../lab5_bsp/\libucosii_bsp.a(alt_dev.o)
                                0x340 (size before relaxing)
 .debug_str     0x00003d7e       0x14 ../lab5_bsp/\libucosii_bsp.a(alt_errno.o)
                                 0xdc (size before relaxing)
 .debug_str     0x00003d92       0x14 ../lab5_bsp/\libucosii_bsp.a(alt_fstat.o)
                                0x2b3 (size before relaxing)
 .debug_str     0x00003da6       0xfb ../lab5_bsp/\libucosii_bsp.a(alt_iic.o)
                                0x1d5 (size before relaxing)
 .debug_str     0x00003ea1       0x4c ../lab5_bsp/\libucosii_bsp.a(alt_iic_isr_register.o)
                                0x17f (size before relaxing)
 .debug_str     0x00003eed       0x3a ../lab5_bsp/\libucosii_bsp.a(alt_irq_handler.o)
                                0x156 (size before relaxing)
 .debug_str     0x00003f27       0x17 ../lab5_bsp/\libucosii_bsp.a(alt_irq_vars.o)
                                 0xe6 (size before relaxing)
 .debug_str     0x00003f3e       0x1c ../lab5_bsp/\libucosii_bsp.a(alt_isatty.o)
                                0x2bb (size before relaxing)
 .debug_str     0x00003f5a       0xe9 ../lab5_bsp/\libucosii_bsp.a(alt_load.o)
                                0x1a9 (size before relaxing)
 .debug_str     0x00004043       0x14 ../lab5_bsp/\libucosii_bsp.a(alt_lseek.o)
                                0x1d8 (size before relaxing)
 .debug_str     0x00004057       0x5d ../lab5_bsp/\libucosii_bsp.a(alt_main.o)
                                0x1f7 (size before relaxing)
 .debug_str     0x000040b4       0x13 ../lab5_bsp/\libucosii_bsp.a(alt_read.o)
                                0x2be (size before relaxing)
 .debug_str     0x000040c7       0x28 ../lab5_bsp/\libucosii_bsp.a(alt_release_fd.o)
                                0x1bc (size before relaxing)
 .debug_str     0x000040ef       0x66 ../lab5_bsp/\libucosii_bsp.a(alt_sbrk.o)
                                0x16b (size before relaxing)
 .debug_str     0x00004155       0x7e ../lab5_bsp/\libucosii_bsp.a(alt_tick.o)
                                0x1f6 (size before relaxing)
 .debug_str     0x000041d3       0x14 ../lab5_bsp/\libucosii_bsp.a(alt_write.o)
                                0x2bf (size before relaxing)
 .debug_str     0x000041e7      0x246 ../lab5_bsp/\libucosii_bsp.a(alt_env_lock.o)
                                0x73e (size before relaxing)
 .debug_str     0x0000442d       0x54 ../lab5_bsp/\libucosii_bsp.a(alt_malloc_lock.o)
                                0x7a0 (size before relaxing)
 .debug_str     0x00004481      0x536 ../lab5_bsp/\libucosii_bsp.a(os_core.o)
                                0x8ed (size before relaxing)
 .debug_str     0x000049b7      0x2e5 ../lab5_bsp/\libucosii_bsp.a(os_dbg.o)
                                0x85c (size before relaxing)
 .debug_str     0x00004c9c      0x136 ../lab5_bsp/\libucosii_bsp.a(os_flag.o)
                                0x589 (size before relaxing)
 .debug_str     0x00004dd2       0xcf ../lab5_bsp/\libucosii_bsp.a(os_mem.o)
                                0x292 (size before relaxing)
 .debug_str     0x00004ea1       0xc0 ../lab5_bsp/\libucosii_bsp.a(os_q.o)
                                0x50c (size before relaxing)
 .debug_str     0x00004f61       0x77 ../lab5_bsp/\libucosii_bsp.a(os_sem.o)
                                0x495 (size before relaxing)
 .debug_str     0x00004fd8      0x118 ../lab5_bsp/\libucosii_bsp.a(os_task.o)
                                0x598 (size before relaxing)
 .debug_str     0x000050f0       0x65 ../lab5_bsp/\libucosii_bsp.a(os_time.o)
                                0x438 (size before relaxing)
 .debug_str     0x00005155      0x158 ../lab5_bsp/\libucosii_bsp.a(alt_sys_init.o)
                                0x407 (size before relaxing)
 .debug_str     0x000052ad       0xac ../lab5_bsp/\libucosii_bsp.a(altera_avalon_jtag_uart_fd.o)
                                0x42b (size before relaxing)
 .debug_str     0x00005359       0xe1 ../lab5_bsp/\libucosii_bsp.a(altera_avalon_jtag_uart_init.o)
                                0x3f2 (size before relaxing)
 .debug_str     0x0000543a       0x4a ../lab5_bsp/\libucosii_bsp.a(altera_avalon_jtag_uart_ioctl.o)
                                0x31a (size before relaxing)
 .debug_str     0x00005484       0x63 ../lab5_bsp/\libucosii_bsp.a(altera_avalon_jtag_uart_read.o)
                                0x38d (size before relaxing)
 .debug_str     0x000054e7       0x4a ../lab5_bsp/\libucosii_bsp.a(altera_avalon_jtag_uart_write.o)
                                0x38e (size before relaxing)
 .debug_str     0x00005531       0x66 ../lab5_bsp/\libucosii_bsp.a(altera_avalon_timer_sc.o)
                                0x1db (size before relaxing)
 .debug_str     0x00005597       0x4a ../lab5_bsp/\libucosii_bsp.a(alt_alarm_start.o)
                                0x215 (size before relaxing)
 .debug_str     0x000055e1       0x42 ../lab5_bsp/\libucosii_bsp.a(alt_dev_llist_insert.o)
                                0x163 (size before relaxing)
 .debug_str     0x00005623       0x48 ../lab5_bsp/\libucosii_bsp.a(alt_do_ctors.o)
                                 0x7c (size before relaxing)
 .debug_str     0x0000566b       0x4c ../lab5_bsp/\libucosii_bsp.a(alt_do_dtors.o)
                                 0x7b (size before relaxing)
 .debug_str     0x000056b7       0x34 ../lab5_bsp/\libucosii_bsp.a(alt_icache_flush_all.o)
                                 0xec (size before relaxing)
 .debug_str     0x000056eb       0x56 ../lab5_bsp/\libucosii_bsp.a(alt_io_redirect.o)
                                0x2dd (size before relaxing)
 .debug_str     0x00005741       0x29 ../lab5_bsp/\libucosii_bsp.a(alt_open.o)
                                0x20a (size before relaxing)
 .debug_str     0x0000576a       0x3b ../lab5_bsp/\libucosii_bsp.a(altera_nios2_qsys_irq.o)
                                 0xf3 (size before relaxing)
 .debug_str     0x000057a5       0xd5 ../lab5_bsp/\libucosii_bsp.a(os_cpu_c.o)
                                0x7b3 (size before relaxing)
 .debug_str     0x0000587a       0x24 ../lab5_bsp/\libucosii_bsp.a(alt_find_dev.o)
                                0x1b3 (size before relaxing)
 .debug_str     0x0000589e       0x26 ../lab5_bsp/\libucosii_bsp.a(alt_find_file.o)
                                0x1c1 (size before relaxing)
 .debug_str     0x000058c4       0x30 ../lab5_bsp/\libucosii_bsp.a(alt_get_fd.o)
                                0x25f (size before relaxing)
 .debug_str     0x000058f4       0x2c ../lab5_bsp/\libucosii_bsp.a(alt_icache_flush.o)
                                 0xf2 (size before relaxing)
 .debug_str     0x00005920       0x3b c:/altera/13.0sp1/nios2eds/bin/gnu/h-i686-mingw32/bin/../lib/gcc/nios2-elf/4.1.2/../../../../nios2-elf/lib\libc.a(lib_a-atexit.o)
                                0x1bf (size before relaxing)
 .debug_str     0x0000595b       0x39 c:/altera/13.0sp1/nios2eds/bin/gnu/h-i686-mingw32/bin/../lib/gcc/nios2-elf/4.1.2/../../../../nios2-elf/lib\libc.a(lib_a-exit.o)
                                0x50c (size before relaxing)
 .debug_str     0x00005994       0x42 c:/altera/13.0sp1/nios2eds/bin/gnu/h-i686-mingw32/bin/../lib/gcc/nios2-elf/4.1.2/../../../../nios2-elf/lib\libc.a(lib_a-memcmp.o)
                                0x16a (size before relaxing)
 .debug_str     0x000059d6       0x51 c:/altera/13.0sp1/nios2eds/bin/gnu/h-i686-mingw32/bin/../lib/gcc/nios2-elf/4.1.2/../../../../nios2-elf/lib\libc.a(lib_a-__atexit.o)
                                0x524 (size before relaxing)
 .debug_str     0x00005a27       0x7b c:/altera/13.0sp1/nios2eds/bin/gnu/h-i686-mingw32/bin/../lib/gcc/nios2-elf/4.1.2/../../../../nios2-elf/lib\libc.a(lib_a-__call_atexit.o)
                                0x54e (size before relaxing)
 .debug_str     0x00005aa2        0xd c:/altera/13.0sp1/nios2eds/bin/gnu/h-i686-mingw32/bin/../lib/gcc/nios2-elf/4.1.2\libgcc.a(_fixunsdfsi.o)
                                0x16b (size before relaxing)
 .debug_str     0x00005aaf       0x2a ../lab5_bsp/\libucosii_bsp.a(alt_exit.o)
                                0x12a (size before relaxing)

.debug_loc      0x00000000    0x13de6
 *(.debug_loc)
 .debug_loc     0x00000000      0x1d1 obj/default/drivers/drivers.o
 .debug_loc     0x000001d1      0x12d obj/default/frame.o
 .debug_loc     0x000002fe      0x670 obj/default/graphic_lib/draw_gimps.o
 .debug_loc     0x0000096e      0x5af obj/default/graphic_lib/gimp_bmp.o
 .debug_loc     0x00000f1d     0x1db7 obj/default/graphic_lib/simple_graphics.o
 .debug_loc     0x00002cd4      0xbe8 obj/default/graphic_lib/simple_text.o
 .debug_loc     0x000038bc      0x22d obj/default/hello_ucosii.o
 .debug_loc     0x00003ae9       0x1f obj/default/student_code/student_code.o
 .debug_loc     0x00003b08      0x273 obj/default/vip_fr.o
 .debug_loc     0x00003d7b       0x66 c:/altera/13.0sp1/nios2eds/bin/gnu/h-i686-mingw32/bin/../lib/gcc/nios2-elf/4.1.2\libgcc.a(_sf_to_si.o)
 .debug_loc     0x00003de1      0x1d2 c:/altera/13.0sp1/nios2eds/bin/gnu/h-i686-mingw32/bin/../lib/gcc/nios2-elf/4.1.2\libgcc.a(lib2-divmod.o)
 .debug_loc     0x00003fb3       0x31 c:/altera/13.0sp1/nios2eds/bin/gnu/h-i686-mingw32/bin/../lib/gcc/nios2-elf/4.1.2\libgcc.a(_unpack_sf.o)
 .debug_loc     0x00003fe4       0x3c c:/altera/13.0sp1/nios2eds/bin/gnu/h-i686-mingw32/bin/../lib/gcc/nios2-elf/4.1.2/../../../../nios2-elf/lib\libc.a(lib_a-malloc.o)
 .debug_loc     0x00004020      0xaeb c:/altera/13.0sp1/nios2eds/bin/gnu/h-i686-mingw32/bin/../lib/gcc/nios2-elf/4.1.2/../../../../nios2-elf/lib\libc.a(lib_a-mallocr.o)
 .debug_loc     0x00004b0b       0xca c:/altera/13.0sp1/nios2eds/bin/gnu/h-i686-mingw32/bin/../lib/gcc/nios2-elf/4.1.2/../../../../nios2-elf/lib\libc.a(lib_a-memcpy.o)
 .debug_loc     0x00004bd5       0xa1 c:/altera/13.0sp1/nios2eds/bin/gnu/h-i686-mingw32/bin/../lib/gcc/nios2-elf/4.1.2/../../../../nios2-elf/lib\libc.a(lib_a-memset.o)
 .debug_loc     0x00004c76       0xcb c:/altera/13.0sp1/nios2eds/bin/gnu/h-i686-mingw32/bin/../lib/gcc/nios2-elf/4.1.2/../../../../nios2-elf/lib\libc.a(lib_a-printf.o)
 .debug_loc     0x00004d41       0x5b c:/altera/13.0sp1/nios2eds/bin/gnu/h-i686-mingw32/bin/../lib/gcc/nios2-elf/4.1.2/../../../../nios2-elf/lib\libc.a(lib_a-sbrkr.o)
 .debug_loc     0x00004d9c       0x8b c:/altera/13.0sp1/nios2eds/bin/gnu/h-i686-mingw32/bin/../lib/gcc/nios2-elf/4.1.2/../../../../nios2-elf/lib\libc.a(lib_a-strcpy.o)
 .debug_loc     0x00004e27       0x3c c:/altera/13.0sp1/nios2eds/bin/gnu/h-i686-mingw32/bin/../lib/gcc/nios2-elf/4.1.2/../../../../nios2-elf/lib\libc.a(lib_a-strlen.o)
 .debug_loc     0x00004e63     0x1e0d c:/altera/13.0sp1/nios2eds/bin/gnu/h-i686-mingw32/bin/../lib/gcc/nios2-elf/4.1.2/../../../../nios2-elf/lib\libc.a(lib_a-vfprintf.o)
 .debug_loc     0x00006c70       0x7c c:/altera/13.0sp1/nios2eds/bin/gnu/h-i686-mingw32/bin/../lib/gcc/nios2-elf/4.1.2/../../../../nios2-elf/lib\libc.a(lib_a-wsetup.o)
 .debug_loc     0x00006cec     0x1dfa c:/altera/13.0sp1/nios2eds/bin/gnu/h-i686-mingw32/bin/../lib/gcc/nios2-elf/4.1.2/../../../../nios2-elf/lib\libc.a(lib_a-dtoa.o)
 .debug_loc     0x00008ae6      0x1f6 c:/altera/13.0sp1/nios2eds/bin/gnu/h-i686-mingw32/bin/../lib/gcc/nios2-elf/4.1.2/../../../../nios2-elf/lib\libc.a(lib_a-fflush.o)
 .debug_loc     0x00008cdc      0x19f c:/altera/13.0sp1/nios2eds/bin/gnu/h-i686-mingw32/bin/../lib/gcc/nios2-elf/4.1.2/../../../../nios2-elf/lib\libc.a(lib_a-findfp.o)
 .debug_loc     0x00008e7b      0x4a7 c:/altera/13.0sp1/nios2eds/bin/gnu/h-i686-mingw32/bin/../lib/gcc/nios2-elf/4.1.2/../../../../nios2-elf/lib\libc.a(lib_a-freer.o)
 .debug_loc     0x00009322      0x4e4 c:/altera/13.0sp1/nios2eds/bin/gnu/h-i686-mingw32/bin/../lib/gcc/nios2-elf/4.1.2/../../../../nios2-elf/lib\libc.a(lib_a-fvwrite.o)
 .debug_loc     0x00009806      0x1d2 c:/altera/13.0sp1/nios2eds/bin/gnu/h-i686-mingw32/bin/../lib/gcc/nios2-elf/4.1.2/../../../../nios2-elf/lib\libc.a(lib_a-fwalk.o)
 .debug_loc     0x000099d8       0xe1 c:/altera/13.0sp1/nios2eds/bin/gnu/h-i686-mingw32/bin/../lib/gcc/nios2-elf/4.1.2/../../../../nios2-elf/lib\libc.a(lib_a-locale.o)
 .debug_loc     0x00009ab9      0x11c c:/altera/13.0sp1/nios2eds/bin/gnu/h-i686-mingw32/bin/../lib/gcc/nios2-elf/4.1.2/../../../../nios2-elf/lib\libc.a(lib_a-makebuf.o)
 .debug_loc     0x00009bd5      0x106 c:/altera/13.0sp1/nios2eds/bin/gnu/h-i686-mingw32/bin/../lib/gcc/nios2-elf/4.1.2/../../../../nios2-elf/lib\libc.a(lib_a-memchr.o)
 .debug_loc     0x00009cdb      0x117 c:/altera/13.0sp1/nios2eds/bin/gnu/h-i686-mingw32/bin/../lib/gcc/nios2-elf/4.1.2/../../../../nios2-elf/lib\libc.a(lib_a-memmove.o)
 .debug_loc     0x00009df2     0x14d6 c:/altera/13.0sp1/nios2eds/bin/gnu/h-i686-mingw32/bin/../lib/gcc/nios2-elf/4.1.2/../../../../nios2-elf/lib\libc.a(lib_a-mprec.o)
 .debug_loc     0x0000b2c8      0x8c0 c:/altera/13.0sp1/nios2eds/bin/gnu/h-i686-mingw32/bin/../lib/gcc/nios2-elf/4.1.2/../../../../nios2-elf/lib\libc.a(lib_a-reallocr.o)
 .debug_loc     0x0000bb88       0x36 c:/altera/13.0sp1/nios2eds/bin/gnu/h-i686-mingw32/bin/../lib/gcc/nios2-elf/4.1.2/../../../../nios2-elf/lib\libc.a(lib_a-s_isinfd.o)
 .debug_loc     0x0000bbbe       0x18 c:/altera/13.0sp1/nios2eds/bin/gnu/h-i686-mingw32/bin/../lib/gcc/nios2-elf/4.1.2/../../../../nios2-elf/lib\libc.a(lib_a-s_isnand.o)
 .debug_loc     0x0000bbd6      0x21f c:/altera/13.0sp1/nios2eds/bin/gnu/h-i686-mingw32/bin/../lib/gcc/nios2-elf/4.1.2/../../../../nios2-elf/lib\libc.a(lib_a-stdio.o)
 .debug_loc     0x0000bdf5       0x65 c:/altera/13.0sp1/nios2eds/bin/gnu/h-i686-mingw32/bin/../lib/gcc/nios2-elf/4.1.2/../../../../nios2-elf/lib\libc.a(lib_a-strcmp.o)
 .debug_loc     0x0000be5a       0x97 c:/altera/13.0sp1/nios2eds/bin/gnu/h-i686-mingw32/bin/../lib/gcc/nios2-elf/4.1.2/../../../../nios2-elf/lib\libc.a(lib_a-writer.o)
 .debug_loc     0x0000bef1       0xe9 c:/altera/13.0sp1/nios2eds/bin/gnu/h-i686-mingw32/bin/../lib/gcc/nios2-elf/4.1.2/../../../../nios2-elf/lib\libc.a(lib_a-callocr.o)
 .debug_loc     0x0000bfda       0x5b c:/altera/13.0sp1/nios2eds/bin/gnu/h-i686-mingw32/bin/../lib/gcc/nios2-elf/4.1.2/../../../../nios2-elf/lib\libc.a(lib_a-closer.o)
 .debug_loc     0x0000c035       0xe4 c:/altera/13.0sp1/nios2eds/bin/gnu/h-i686-mingw32/bin/../lib/gcc/nios2-elf/4.1.2/../../../../nios2-elf/lib\libc.a(lib_a-fclose.o)
 .debug_loc     0x0000c119       0x79 c:/altera/13.0sp1/nios2eds/bin/gnu/h-i686-mingw32/bin/../lib/gcc/nios2-elf/4.1.2/../../../../nios2-elf/lib\libc.a(lib_a-fstatr.o)
 .debug_loc     0x0000c192       0x5b c:/altera/13.0sp1/nios2eds/bin/gnu/h-i686-mingw32/bin/../lib/gcc/nios2-elf/4.1.2/../../../../nios2-elf/lib\libc.a(lib_a-isattyr.o)
 .debug_loc     0x0000c1ed       0x97 c:/altera/13.0sp1/nios2eds/bin/gnu/h-i686-mingw32/bin/../lib/gcc/nios2-elf/4.1.2/../../../../nios2-elf/lib\libc.a(lib_a-lseekr.o)
 .debug_loc     0x0000c284       0x97 c:/altera/13.0sp1/nios2eds/bin/gnu/h-i686-mingw32/bin/../lib/gcc/nios2-elf/4.1.2/../../../../nios2-elf/lib\libc.a(lib_a-readr.o)
 .debug_loc     0x0000c31b      0xc12 c:/altera/13.0sp1/nios2eds/bin/gnu/h-i686-mingw32/bin/../lib/gcc/nios2-elf/4.1.2\libgcc.a(_udivdi3.o)
 .debug_loc     0x0000cf2d      0xc26 c:/altera/13.0sp1/nios2eds/bin/gnu/h-i686-mingw32/bin/../lib/gcc/nios2-elf/4.1.2\libgcc.a(_umoddi3.o)
 .debug_loc     0x0000db53      0x47a c:/altera/13.0sp1/nios2eds/bin/gnu/h-i686-mingw32/bin/../lib/gcc/nios2-elf/4.1.2\libgcc.a(_addsub_df.o)
 .debug_loc     0x0000dfcd      0x3b4 c:/altera/13.0sp1/nios2eds/bin/gnu/h-i686-mingw32/bin/../lib/gcc/nios2-elf/4.1.2\libgcc.a(_mul_df.o)
 .debug_loc     0x0000e381      0x1df c:/altera/13.0sp1/nios2eds/bin/gnu/h-i686-mingw32/bin/../lib/gcc/nios2-elf/4.1.2\libgcc.a(_div_df.o)
 .debug_loc     0x0000e560       0x70 c:/altera/13.0sp1/nios2eds/bin/gnu/h-i686-mingw32/bin/../lib/gcc/nios2-elf/4.1.2\libgcc.a(_eq_df.o)
 .debug_loc     0x0000e5d0       0x70 c:/altera/13.0sp1/nios2eds/bin/gnu/h-i686-mingw32/bin/../lib/gcc/nios2-elf/4.1.2\libgcc.a(_ne_df.o)
 .debug_loc     0x0000e640       0x70 c:/altera/13.0sp1/nios2eds/bin/gnu/h-i686-mingw32/bin/../lib/gcc/nios2-elf/4.1.2\libgcc.a(_gt_df.o)
 .debug_loc     0x0000e6b0       0x70 c:/altera/13.0sp1/nios2eds/bin/gnu/h-i686-mingw32/bin/../lib/gcc/nios2-elf/4.1.2\libgcc.a(_ge_df.o)
 .debug_loc     0x0000e720       0x70 c:/altera/13.0sp1/nios2eds/bin/gnu/h-i686-mingw32/bin/../lib/gcc/nios2-elf/4.1.2\libgcc.a(_lt_df.o)
 .debug_loc     0x0000e790       0x9a c:/altera/13.0sp1/nios2eds/bin/gnu/h-i686-mingw32/bin/../lib/gcc/nios2-elf/4.1.2\libgcc.a(_si_to_df.o)
 .debug_loc     0x0000e82a       0x8b c:/altera/13.0sp1/nios2eds/bin/gnu/h-i686-mingw32/bin/../lib/gcc/nios2-elf/4.1.2\libgcc.a(_df_to_si.o)
 .debug_loc     0x0000e8b5       0x5b c:/altera/13.0sp1/nios2eds/bin/gnu/h-i686-mingw32/bin/../lib/gcc/nios2-elf/4.1.2\libgcc.a(_usi_to_df.o)
 .debug_loc     0x0000e910       0xc4 c:/altera/13.0sp1/nios2eds/bin/gnu/h-i686-mingw32/bin/../lib/gcc/nios2-elf/4.1.2\libgcc.a(_muldi3.o)
 .debug_loc     0x0000e9d4       0x1e c:/altera/13.0sp1/nios2eds/bin/gnu/h-i686-mingw32/bin/../lib/gcc/nios2-elf/4.1.2\libgcc.a(_clzsi2.o)
 .debug_loc     0x0000e9f2      0x184 c:/altera/13.0sp1/nios2eds/bin/gnu/h-i686-mingw32/bin/../lib/gcc/nios2-elf/4.1.2\libgcc.a(_pack_df.o)
 .debug_loc     0x0000eb76       0xe5 c:/altera/13.0sp1/nios2eds/bin/gnu/h-i686-mingw32/bin/../lib/gcc/nios2-elf/4.1.2\libgcc.a(_unpack_df.o)
 .debug_loc     0x0000ec5b       0x9a ../lab5_bsp/\libucosii_bsp.a(alt_close.o)
 .debug_loc     0x0000ecf5       0x9a ../lab5_bsp/\libucosii_bsp.a(alt_fstat.o)
 .debug_loc     0x0000ed8f       0x91 ../lab5_bsp/\libucosii_bsp.a(alt_iic.o)
 .debug_loc     0x0000ee20      0x107 ../lab5_bsp/\libucosii_bsp.a(alt_iic_isr_register.o)
 .debug_loc     0x0000ef27       0x79 ../lab5_bsp/\libucosii_bsp.a(alt_irq_handler.o)
 .debug_loc     0x0000efa0       0x67 ../lab5_bsp/\libucosii_bsp.a(alt_isatty.o)
 .debug_loc     0x0000f007       0xeb ../lab5_bsp/\libucosii_bsp.a(alt_load.o)
 .debug_loc     0x0000f0f2      0x118 ../lab5_bsp/\libucosii_bsp.a(alt_lseek.o)
 .debug_loc     0x0000f20a       0x1f ../lab5_bsp/\libucosii_bsp.a(alt_main.o)
 .debug_loc     0x0000f229      0x123 ../lab5_bsp/\libucosii_bsp.a(alt_read.o)
 .debug_loc     0x0000f34c       0x13 ../lab5_bsp/\libucosii_bsp.a(alt_sbrk.o)
 .debug_loc     0x0000f35f       0x66 ../lab5_bsp/\libucosii_bsp.a(alt_tick.o)
 .debug_loc     0x0000f3c5      0x123 ../lab5_bsp/\libucosii_bsp.a(alt_write.o)
 .debug_loc     0x0000f4e8       0x83 ../lab5_bsp/\libucosii_bsp.a(alt_env_lock.o)
 .debug_loc     0x0000f56b       0xca ../lab5_bsp/\libucosii_bsp.a(alt_malloc_lock.o)
 .debug_loc     0x0000f635      0xae9 ../lab5_bsp/\libucosii_bsp.a(os_core.o)
 .debug_loc     0x0001011e      0xcd3 ../lab5_bsp/\libucosii_bsp.a(os_flag.o)
 .debug_loc     0x00010df1      0x313 ../lab5_bsp/\libucosii_bsp.a(os_mem.o)
 .debug_loc     0x00011104      0x7c6 ../lab5_bsp/\libucosii_bsp.a(os_q.o)
 .debug_loc     0x000118ca      0x473 ../lab5_bsp/\libucosii_bsp.a(os_sem.o)
 .debug_loc     0x00011d3d      0xaa3 ../lab5_bsp/\libucosii_bsp.a(os_task.o)
 .debug_loc     0x000127e0      0x2af ../lab5_bsp/\libucosii_bsp.a(os_time.o)
 .debug_loc     0x00012a8f       0x51 ../lab5_bsp/\libucosii_bsp.a(alt_sys_init.o)
 .debug_loc     0x00012ae0      0x15b ../lab5_bsp/\libucosii_bsp.a(altera_avalon_jtag_uart_fd.o)
 .debug_loc     0x00012c3b      0x1fe ../lab5_bsp/\libucosii_bsp.a(altera_avalon_jtag_uart_init.o)
 .debug_loc     0x00012e39       0x47 ../lab5_bsp/\libucosii_bsp.a(altera_avalon_jtag_uart_ioctl.o)
 .debug_loc     0x00012e80      0x14e ../lab5_bsp/\libucosii_bsp.a(altera_avalon_jtag_uart_read.o)
 .debug_loc     0x00012fce      0x1bf ../lab5_bsp/\libucosii_bsp.a(altera_avalon_jtag_uart_write.o)
 .debug_loc     0x0001318d       0xd1 ../lab5_bsp/\libucosii_bsp.a(altera_avalon_timer_sc.o)
 .debug_loc     0x0001325e       0x39 ../lab5_bsp/\libucosii_bsp.a(alt_alarm_start.o)
 .debug_loc     0x00013297       0x5b ../lab5_bsp/\libucosii_bsp.a(alt_dev_llist_insert.o)
 .debug_loc     0x000132f2       0x32 ../lab5_bsp/\libucosii_bsp.a(alt_do_ctors.o)
 .debug_loc     0x00013324       0x32 ../lab5_bsp/\libucosii_bsp.a(alt_do_dtors.o)
 .debug_loc     0x00013356       0x1f ../lab5_bsp/\libucosii_bsp.a(alt_icache_flush_all.o)
 .debug_loc     0x00013375      0x139 ../lab5_bsp/\libucosii_bsp.a(alt_io_redirect.o)
 .debug_loc     0x000134ae      0x1fe ../lab5_bsp/\libucosii_bsp.a(alt_open.o)
 .debug_loc     0x000136ac       0xa7 ../lab5_bsp/\libucosii_bsp.a(os_cpu_c.o)
 .debug_loc     0x00013753       0x81 ../lab5_bsp/\libucosii_bsp.a(alt_find_dev.o)
 .debug_loc     0x000137d4       0x84 ../lab5_bsp/\libucosii_bsp.a(alt_find_file.o)
 .debug_loc     0x00013858       0x9a ../lab5_bsp/\libucosii_bsp.a(alt_get_fd.o)
 .debug_loc     0x000138f2       0x13 ../lab5_bsp/\libucosii_bsp.a(alt_icache_flush.o)
 .debug_loc     0x00013905       0x1e c:/altera/13.0sp1/nios2eds/bin/gnu/h-i686-mingw32/bin/../lib/gcc/nios2-elf/4.1.2/../../../../nios2-elf/lib\libc.a(lib_a-atexit.o)
 .debug_loc     0x00013923       0x3d c:/altera/13.0sp1/nios2eds/bin/gnu/h-i686-mingw32/bin/../lib/gcc/nios2-elf/4.1.2/../../../../nios2-elf/lib\libc.a(lib_a-exit.o)
 .debug_loc     0x00013960      0x114 c:/altera/13.0sp1/nios2eds/bin/gnu/h-i686-mingw32/bin/../lib/gcc/nios2-elf/4.1.2/../../../../nios2-elf/lib\libc.a(lib_a-memcmp.o)
 .debug_loc     0x00013a74      0x120 c:/altera/13.0sp1/nios2eds/bin/gnu/h-i686-mingw32/bin/../lib/gcc/nios2-elf/4.1.2/../../../../nios2-elf/lib\libc.a(lib_a-__atexit.o)
 .debug_loc     0x00013b94      0x1cb c:/altera/13.0sp1/nios2eds/bin/gnu/h-i686-mingw32/bin/../lib/gcc/nios2-elf/4.1.2/../../../../nios2-elf/lib\libc.a(lib_a-__call_atexit.o)
 .debug_loc     0x00013d5f       0x87 c:/altera/13.0sp1/nios2eds/bin/gnu/h-i686-mingw32/bin/../lib/gcc/nios2-elf/4.1.2\libgcc.a(_fixunsdfsi.o)

.debug_macinfo
 *(.debug_macinfo)

.debug_weaknames
 *(.debug_weaknames)

.debug_funcnames
 *(.debug_funcnames)

.debug_typenames
 *(.debug_typenames)

.debug_varnames
 *(.debug_varnames)

.debug_alt_sim_info
                0x00000000       0x20
 *(.debug_alt_sim_info)
 .debug_alt_sim_info
                0x00000000       0x20 ../lab5_bsp//obj/HAL/src/crt0.o
                0x01000000                __alt_data_end = 0x1000000
                0x01000000                PROVIDE (__alt_stack_pointer, __alt_data_end)
                0x00f427d8                PROVIDE (__alt_stack_limit, __alt_stack_base)
                0x00f427d8                PROVIDE (__alt_heap_start, end)
                0x01000000                PROVIDE (__alt_heap_limit, 0x1000000)
OUTPUT(lab5.elf elf32-littlenios2)

.debug_ranges   0x00000000      0xcd8
 .debug_ranges  0x00000000       0x20 ../lab5_bsp//obj/HAL/src/crt0.o
 .debug_ranges  0x00000020       0x60 obj/default/graphic_lib/simple_graphics.o
 .debug_ranges  0x00000080       0xf0 obj/default/graphic_lib/simple_text.o
 .debug_ranges  0x00000170       0x70 c:/altera/13.0sp1/nios2eds/bin/gnu/h-i686-mingw32/bin/../lib/gcc/nios2-elf/4.1.2/../../../../nios2-elf/lib\libc.a(lib_a-mallocr.o)
 .debug_ranges  0x000001e0      0x168 c:/altera/13.0sp1/nios2eds/bin/gnu/h-i686-mingw32/bin/../lib/gcc/nios2-elf/4.1.2/../../../../nios2-elf/lib\libc.a(lib_a-vfprintf.o)
 .debug_ranges  0x00000348       0x20 c:/altera/13.0sp1/nios2eds/bin/gnu/h-i686-mingw32/bin/../lib/gcc/nios2-elf/4.1.2/../../../../nios2-elf/lib\libc.a(lib_a-fflush.o)
 .debug_ranges  0x00000368       0x28 c:/altera/13.0sp1/nios2eds/bin/gnu/h-i686-mingw32/bin/../lib/gcc/nios2-elf/4.1.2/../../../../nios2-elf/lib\libc.a(lib_a-fvwrite.o)
 .debug_ranges  0x00000390       0xa0 c:/altera/13.0sp1/nios2eds/bin/gnu/h-i686-mingw32/bin/../lib/gcc/nios2-elf/4.1.2/../../../../nios2-elf/lib\libc.a(lib_a-fwalk.o)
 .debug_ranges  0x00000430      0x110 c:/altera/13.0sp1/nios2eds/bin/gnu/h-i686-mingw32/bin/../lib/gcc/nios2-elf/4.1.2/../../../../nios2-elf/lib\libc.a(lib_a-reallocr.o)
 .debug_ranges  0x00000540       0x38 c:/altera/13.0sp1/nios2eds/bin/gnu/h-i686-mingw32/bin/../lib/gcc/nios2-elf/4.1.2/../../../../nios2-elf/lib\libc.a(lib_a-callocr.o)
 .debug_ranges  0x00000578      0x188 c:/altera/13.0sp1/nios2eds/bin/gnu/h-i686-mingw32/bin/../lib/gcc/nios2-elf/4.1.2\libgcc.a(_udivdi3.o)
 .debug_ranges  0x00000700      0x198 c:/altera/13.0sp1/nios2eds/bin/gnu/h-i686-mingw32/bin/../lib/gcc/nios2-elf/4.1.2\libgcc.a(_umoddi3.o)
 .debug_ranges  0x00000898       0x30 c:/altera/13.0sp1/nios2eds/bin/gnu/h-i686-mingw32/bin/../lib/gcc/nios2-elf/4.1.2\libgcc.a(_addsub_df.o)
 .debug_ranges  0x000008c8       0x88 c:/altera/13.0sp1/nios2eds/bin/gnu/h-i686-mingw32/bin/../lib/gcc/nios2-elf/4.1.2\libgcc.a(_mul_df.o)
 .debug_ranges  0x00000950       0x50 c:/altera/13.0sp1/nios2eds/bin/gnu/h-i686-mingw32/bin/../lib/gcc/nios2-elf/4.1.2\libgcc.a(_div_df.o)
 .debug_ranges  0x000009a0       0x18 c:/altera/13.0sp1/nios2eds/bin/gnu/h-i686-mingw32/bin/../lib/gcc/nios2-elf/4.1.2\libgcc.a(_usi_to_df.o)
 .debug_ranges  0x000009b8       0x68 c:/altera/13.0sp1/nios2eds/bin/gnu/h-i686-mingw32/bin/../lib/gcc/nios2-elf/4.1.2\libgcc.a(_muldi3.o)
 .debug_ranges  0x00000a20       0x28 c:/altera/13.0sp1/nios2eds/bin/gnu/h-i686-mingw32/bin/../lib/gcc/nios2-elf/4.1.2\libgcc.a(_clzsi2.o)
 .debug_ranges  0x00000a48       0x28 c:/altera/13.0sp1/nios2eds/bin/gnu/h-i686-mingw32/bin/../lib/gcc/nios2-elf/4.1.2\libgcc.a(_pack_df.o)
 .debug_ranges  0x00000a70       0x28 ../lab5_bsp/\libucosii_bsp.a(alt_irq_entry.o)
 .debug_ranges  0x00000a98       0x18 ../lab5_bsp/\libucosii_bsp.a(alt_irq_handler.o)
 .debug_ranges  0x00000ab0       0x48 ../lab5_bsp/\libucosii_bsp.a(alt_load.o)
 .debug_ranges  0x00000af8       0x30 ../lab5_bsp/\libucosii_bsp.a(os_flag.o)
 .debug_ranges  0x00000b28       0x18 ../lab5_bsp/\libucosii_bsp.a(os_mem.o)
 .debug_ranges  0x00000b40       0x30 ../lab5_bsp/\libucosii_bsp.a(os_q.o)
 .debug_ranges  0x00000b70       0x30 ../lab5_bsp/\libucosii_bsp.a(os_sem.o)
 .debug_ranges  0x00000ba0       0x60 ../lab5_bsp/\libucosii_bsp.a(os_task.o)
 .debug_ranges  0x00000c00       0x18 ../lab5_bsp/\libucosii_bsp.a(altera_avalon_jtag_uart_read.o)
 .debug_ranges  0x00000c18       0x48 ../lab5_bsp/\libucosii_bsp.a(altera_avalon_jtag_uart_write.o)
 .debug_ranges  0x00000c60       0x30 ../lab5_bsp/\libucosii_bsp.a(alt_exception_entry.o)
 .debug_ranges  0x00000c90       0x30 ../lab5_bsp/\libucosii_bsp.a(alt_open.o)
 .debug_ranges  0x00000cc0       0x18 c:/altera/13.0sp1/nios2eds/bin/gnu/h-i686-mingw32/bin/../lib/gcc/nios2-elf/4.1.2/../../../../nios2-elf/lib\libc.a(lib_a-__call_atexit.o)
